cblocks.log.log
TrainingLog
p1
(tRp2
I0
(dp3
sI1
(dp4
S'perplexity'
p5
cnumpy.core.multiarray
_reconstruct
p6
(cnumpy
ndarray
p7
(I0
tS'b'
tRp8
(I1
(tcnumpy
dtype
p9
(S'f8'
I0
I1
tRp10
(I3
S'<'
NNNI-1
I-1
I0
tbI00
S'y\xfa\xfe\xf7\xdd{\xd6@'
tbsS'learning_rate'
p11
F1
ssI2
(dp12
g5
g6
(g7
(I0
tS'b'
tRp13
(I1
(tg10
I00
S'\x97\xb9t\x81<o\xd6@'
tbsg11
F1
ssI3
(dp14
g5
g6
(g7
(I0
tS'b'
tRp15
(I1
(tg10
I00
S' \xfb\xf7\xdfi$\xd5@'
tbsg11
F1
ssI4
(dp16
g5
g6
(g7
(I0
tS'b'
tRp17
(I1
(tg10
I00
S'`_eUD\xab\xd7@'
tbsg11
F1
ssI5
(dp18
g5
g6
(g7
(I0
tS'b'
tRp19
(I1
(tg10
I00
S'F\x87\xa7C\x1dK\xd6@'
tbsg11
F1
ssI6
(dp20
g5
g6
(g7
(I0
tS'b'
tRp21
(I1
(tg10
I00
S'o[\x91S\xb4\xf1\xd4@'
tbsg11
F1
ssI7
(dp22
g5
g6
(g7
(I0
tS'b'
tRp23
(I1
(tg10
I00
S'\xd4\xec\xf4\x1c1\x19\xd6@'
tbsg11
F1
ssI8
(dp24
g5
g6
(g7
(I0
tS'b'
tRp25
(I1
(tg10
I00
S'&\xdet7\xdec\xd7@'
tbsg11
F1
ssI9
(dp26
g5
g6
(g7
(I0
tS'b'
tRp27
(I1
(tg10
I00
S'\x85s\x96\xcc\xe6\xd5\xd4@'
tbsg11
F1
ssI10
(dp28
g5
g6
(g7
(I0
tS'b'
tRp29
(I1
(tg10
I00
S"\xd6'[\x9d\x11\xdd\xd5@"
tbsg11
F1
ssI11
(dp30
g5
g6
(g7
(I0
tS'b'
tRp31
(I1
(tg10
I00
S'M\x0e@\x7f\xbc\x9d\xd4@'
tbsg11
F1
ssI12
(dp32
g5
g6
(g7
(I0
tS'b'
tRp33
(I1
(tg10
I00
S'\x16:\xff\n|\xab\xd5@'
tbsg11
F1
ssI13
(dp34
g5
g6
(g7
(I0
tS'b'
tRp35
(I1
(tg10
I00
S'\x04\x8fYvQ\x9a\xd5@'
tbsg11
F1
ssI14
(dp36
g5
g6
(g7
(I0
tS'b'
tRp37
(I1
(tg10
I00
S'\xac\xc94\xde6Q\xd4@'
tbsg11
F1
ssI15
(dp38
g5
g6
(g7
(I0
tS'b'
tRp39
(I1
(tg10
I00
S'\x84\xa1\x8a\x060\x99\xd6@'
tbsg11
F1
ssI16
(dp40
g5
g6
(g7
(I0
tS'b'
tRp41
(I1
(tg10
I00
S"\xf7e\x07D\xe4'\xd5@"
tbsg11
F1
ssI17
(dp42
g5
g6
(g7
(I0
tS'b'
tRp43
(I1
(tg10
I00
S'\x12\xbc\xbd\xf3\x8f\xa7\xd3@'
tbsg11
F1
ssI18
(dp44
g5
g6
(g7
(I0
tS'b'
tRp45
(I1
(tg10
I00
S'\x19\x97\xdc*\xcf\x8c\xd4@'
tbsg11
F1
ssI19
(dp46
g5
g6
(g7
(I0
tS'b'
tRp47
(I1
(tg10
I00
S'\xd6\x92\x9c3\xb7\x99\xd5@'
tbsg11
F1
ssI20
(dp48
g5
g6
(g7
(I0
tS'b'
tRp49
(I1
(tg10
I00
S'\xd8\xf5Ba\x87\xf3\xd2@'
tbsg11
F1
ssI21
(dp50
g5
g6
(g7
(I0
tS'b'
tRp51
(I1
(tg10
I00
S'\xb0\xbe\xe4\xec\xf9\x11\xd3@'
tbsg11
F1
ssI22
(dp52
g5
g6
(g7
(I0
tS'b'
tRp53
(I1
(tg10
I00
S'\x1f\xf6O\xca\x11#\xd1@'
tbsg11
F1
ssI23
(dp54
g5
g6
(g7
(I0
tS'b'
tRp55
(I1
(tg10
I00
S'Y\xb0z/\xc0\x0f\xd1@'
tbsg11
F1
ssI24
(dp56
g5
g6
(g7
(I0
tS'b'
tRp57
(I1
(tg10
I00
S'_\xd6\xa4B67\xce@'
tbsg11
F1
ssI25
(dp58
g5
g6
(g7
(I0
tS'b'
tRp59
(I1
(tg10
I00
S'\xb7\xf9\x04f4n\xc8@'
tbsg11
F1
ssI26
(dp60
g5
g6
(g7
(I0
tS'b'
tRp61
(I1
(tg10
I00
S'\n\xff\xeb\xbdOV\xc3@'
tbsg11
F1
ssI27
(dp62
g5
g6
(g7
(I0
tS'b'
tRp63
(I1
(tg10
I00
S'\xd33\xfa\xf7\xc5\x0b\xb4@'
tbsg11
F1
ssI28
(dp64
g5
g6
(g7
(I0
tS'b'
tRp65
(I1
(tg10
I00
S'\xc6\x82\xaeA1\xc8\xa0@'
tbsg11
F1
ssI29
(dp66
g5
g6
(g7
(I0
tS'b'
tRp67
(I1
(tg10
I00
S'\xafef\x97\x0c(\xa3@'
tbsg11
F1
ssI30
(dp68
g5
g6
(g7
(I0
tS'b'
tRp69
(I1
(tg10
I00
S'\xdb\xddx&XZ\xa7@'
tbsg11
F1
ssI31
(dp70
g5
g6
(g7
(I0
tS'b'
tRp71
(I1
(tg10
I00
S'\xa1?\xa9\xf8E\x05\xa3@'
tbsg11
F1
ssI32
(dp72
g5
g6
(g7
(I0
tS'b'
tRp73
(I1
(tg10
I00
S"\x0c\xf6\xc5'\x00]\xa0@"
tbsg11
F1
ssI33
(dp74
g5
g6
(g7
(I0
tS'b'
tRp75
(I1
(tg10
I00
S'r\x06\xe2w\x06\xea\x95@'
tbsg11
F1
ssI34
(dp76
g5
g6
(g7
(I0
tS'b'
tRp77
(I1
(tg10
I00
S'\xe9\x1cA\xeeKG\xa0@'
tbsg11
F1
ssI35
(dp78
g5
g6
(g7
(I0
tS'b'
tRp79
(I1
(tg10
I00
S'\xecu\xd4\xb9p\xff\x9e@'
tbsg11
F1
ssI36
(dp80
g5
g6
(g7
(I0
tS'b'
tRp81
(I1
(tg10
I00
S'OX\xe1tN\x84\xa1@'
tbsg11
F1
ssI37
(dp82
g5
g6
(g7
(I0
tS'b'
tRp83
(I1
(tg10
I00
S'\xbb\xd2B\xac\xf1l\xa2@'
tbsg11
F1
ssI38
(dp84
g5
g6
(g7
(I0
tS'b'
tRp85
(I1
(tg10
I00
S'p\xb6\x8e\xa9`z\x99@'
tbsg11
F1
ssI39
(dp86
g5
g6
(g7
(I0
tS'b'
tRp87
(I1
(tg10
I00
S'\xee\x9f\xddc\x8b\xb2\x91@'
tbsg11
F1
ssI40
(dp88
g5
g6
(g7
(I0
tS'b'
tRp89
(I1
(tg10
I00
S'\xcf\xbdg\xb7\xfa\t\x94@'
tbsg11
F1
ssI41
(dp90
g5
g6
(g7
(I0
tS'b'
tRp91
(I1
(tg10
I00
S'\x96FQ9f7\xa6@'
tbsg11
F1
ssI42
(dp92
g5
g6
(g7
(I0
tS'b'
tRp93
(I1
(tg10
I00
S'-\xe4\xff\xc2\xcb\x14\xa0@'
tbsg11
F1
ssI43
(dp94
g5
g6
(g7
(I0
tS'b'
tRp95
(I1
(tg10
I00
S'h\n\x8b\x1c_\x90\x8f@'
tbsg11
F1
ssI44
(dp96
g5
g6
(g7
(I0
tS'b'
tRp97
(I1
(tg10
I00
S'\xed\xfb_\x17\x0b\xaa\x80@'
tbsg11
F1
ssI45
(dp98
g5
g6
(g7
(I0
tS'b'
tRp99
(I1
(tg10
I00
S'X\xb3\xd4`\xf5<\x9c@'
tbsg11
F1
ssI46
(dp100
g5
g6
(g7
(I0
tS'b'
tRp101
(I1
(tg10
I00
S'\xacG\xbc\xa7\xdc\x19\x90@'
tbsg11
F1
ssI47
(dp102
g5
g6
(g7
(I0
tS'b'
tRp103
(I1
(tg10
I00
S'V\xa76\xa9G\xe6\x9e@'
tbsg11
F1
ssI48
(dp104
g5
g6
(g7
(I0
tS'b'
tRp105
(I1
(tg10
I00
S'\xadT{\x8cY|\x9b@'
tbsg11
F1
ssI49
(dp106
g5
g6
(g7
(I0
tS'b'
tRp107
(I1
(tg10
I00
S'\xd9\x11-\xe9wP\x91@'
tbsg11
F1
ssI50
(dp108
g5
g6
(g7
(I0
tS'b'
tRp109
(I1
(tg10
I00
S'\xb7\x00\xec\x89\xa0\x04\x85@'
tbsg11
F1
ssI51
(dp110
g5
g6
(g7
(I0
tS'b'
tRp111
(I1
(tg10
I00
S'\x92\xce\xe5\x04\xa3\x97\x8f@'
tbsg11
F1
ssI52
(dp112
g5
g6
(g7
(I0
tS'b'
tRp113
(I1
(tg10
I00
S'\x13\xae\xc8Fa\xce\xa0@'
tbsg11
F1
ssI53
(dp114
g5
g6
(g7
(I0
tS'b'
tRp115
(I1
(tg10
I00
S'^\xfb\x07\xb1]>\x95@'
tbsg11
F1
ssI54
(dp116
g5
g6
(g7
(I0
tS'b'
tRp117
(I1
(tg10
I00
S'\x8fd\xb2\xa3\xba\x8a\x86@'
tbsg11
F1
ssI55
(dp118
g5
g6
(g7
(I0
tS'b'
tRp119
(I1
(tg10
I00
S'\x91\xa3\xc1RK\xb4v@'
tbsg11
F1
ssI56
(dp120
g5
g6
(g7
(I0
tS'b'
tRp121
(I1
(tg10
I00
S'J\x07LK\x80A\x90@'
tbsg11
F1
ssI57
(dp122
g5
g6
(g7
(I0
tS'b'
tRp123
(I1
(tg10
I00
S'\x9d\x084\xd9\xd3\xf0\x84@'
tbsg11
F1
ssI58
(dp124
g5
g6
(g7
(I0
tS'b'
tRp125
(I1
(tg10
I00
S'O\xff\x0f\x08\xa33\x8d@'
tbsg11
F1
ssI59
(dp126
g5
g6
(g7
(I0
tS'b'
tRp127
(I1
(tg10
I00
S's\r\xe4\xc9\xb7\x9a\x84@'
tbsg11
F1
ssI60
(dp128
g5
g6
(g7
(I0
tS'b'
tRp129
(I1
(tg10
I00
S'\xb3by\x94\xb7\xa4s@'
tbsg11
F1
ssI61
(dp130
g5
g6
(g7
(I0
tS'b'
tRp131
(I1
(tg10
I00
S'\xcb\xdd\xbe\x889Am@'
tbsg11
F1
ssI62
(dp132
g5
g6
(g7
(I0
tS'b'
tRp133
(I1
(tg10
I00
S'\xe9\xe9\xcb>\xc6\x87p@'
tbsg11
F1
ssI63
(dp134
g5
g6
(g7
(I0
tS'b'
tRp135
(I1
(tg10
I00
S'k\xbb!`\xed\x16s@'
tbsg11
F1
ssI64
(dp136
g5
g6
(g7
(I0
tS'b'
tRp137
(I1
(tg10
I00
S'\x11\xcd\x1d\xa1<@|@'
tbsg11
F1
ssI65
(dp138
g5
g6
(g7
(I0
tS'b'
tRp139
(I1
(tg10
I00
S'\x8a\xc7\x8c\x9a\x00\xc0P@'
tbsg11
F1
ssI66
(dp140
g5
g6
(g7
(I0
tS'b'
tRp141
(I1
(tg10
I00
S'\xb8\r\xe5|\x93\x1f\xa2@'
tbsg11
F1
ssI67
(dp142
g5
g6
(g7
(I0
tS'b'
tRp143
(I1
(tg10
I00
S'\xe5l\xef\xdfd\xb7^@'
tbsg11
F1
ssI68
(dp144
g5
g6
(g7
(I0
tS'b'
tRp145
(I1
(tg10
I00
S'\xe3\x1e\xbeI\xee\xaf\x8d@'
tbsg11
F1
ssI69
(dp146
g5
g6
(g7
(I0
tS'b'
tRp147
(I1
(tg10
I00
S'q0\x1b\x8e\x19\xb1c@'
tbsg11
F1
ssI70
(dp148
g5
g6
(g7
(I0
tS'b'
tRp149
(I1
(tg10
I00
S'\xb2\x191\xa8kw`@'
tbsg11
F1
ssI71
(dp150
g5
g6
(g7
(I0
tS'b'
tRp151
(I1
(tg10
I00
S'.E\x9d*M\xeb]@'
tbsg11
F1
ssI72
(dp152
g5
g6
(g7
(I0
tS'b'
tRp153
(I1
(tg10
I00
S'\t\x030\xcbx#X@'
tbsg11
F1
ssI73
(dp154
g5
g6
(g7
(I0
tS'b'
tRp155
(I1
(tg10
I00
S'\x19\xd0\xa4J\x98\xb0S@'
tbsg11
F1
ssI74
(dp156
g5
g6
(g7
(I0
tS'b'
tRp157
(I1
(tg10
I00
S'!i\x87LUVX@'
tbsg11
F1
ssI75
(dp158
g5
g6
(g7
(I0
tS'b'
tRp159
(I1
(tg10
I00
S':EF\x9bj\xa6^@'
tbsg11
F1
ssI76
(dp160
g5
g6
(g7
(I0
tS'b'
tRp161
(I1
(tg10
I00
S'P\xec\xaa=\x17\xb7D@'
tbsg11
F1
ssI77
(dp162
g5
g6
(g7
(I0
tS'b'
tRp163
(I1
(tg10
I00
S'\x9a\xed\x8d\xd1\x18\xd1^@'
tbsg11
F1
ssI78
(dp164
g5
g6
(g7
(I0
tS'b'
tRp165
(I1
(tg10
I00
S'\x18\x90\x9b\x1f\x89\x01P@'
tbsg11
F1
ssI79
(dp166
g5
g6
(g7
(I0
tS'b'
tRp167
(I1
(tg10
I00
S'\xbf\x1b\xd9P\xa9\xdaK@'
tbsg11
F1
ssI80
(dp168
g5
g6
(g7
(I0
tS'b'
tRp169
(I1
(tg10
I00
S'J\xc7\xf4\xdb\xdf\x03T@'
tbsg11
F1
ssI81
(dp170
g5
g6
(g7
(I0
tS'b'
tRp171
(I1
(tg10
I00
S'S\xf1iY\xf7R;@'
tbsg11
F1
ssI82
(dp172
g5
g6
(g7
(I0
tS'b'
tRp173
(I1
(tg10
I00
S'_\xef2<\xcd\xaeB@'
tbsg11
F1
ssI83
(dp174
g5
g6
(g7
(I0
tS'b'
tRp175
(I1
(tg10
I00
S'\xb8c\xfd\x7f\xa8Y<@'
tbsg11
F1
ssI84
(dp176
g5
g6
(g7
(I0
tS'b'
tRp177
(I1
(tg10
I00
S'\x99\x8b\xcdh\x8c_<@'
tbsg11
F1
ssI85
(dp178
g5
g6
(g7
(I0
tS'b'
tRp179
(I1
(tg10
I00
S"\xcd\xc2V\xd1''C@"
tbsg11
F1
ssI86
(dp180
g5
g6
(g7
(I0
tS'b'
tRp181
(I1
(tg10
I00
S'K\xe2\x9f\xcb"\xfa\\@'
tbsg11
F1
ssI87
(dp182
g5
g6
(g7
(I0
tS'b'
tRp183
(I1
(tg10
I00
S'\xb4\xb8\x0e\x07Z :@'
tbsg11
F1
ssI88
(dp184
g5
g6
(g7
(I0
tS'b'
tRp185
(I1
(tg10
I00
S'\x90:=\xf2?\xe9J@'
tbsg11
F1
ssI89
(dp186
g5
g6
(g7
(I0
tS'b'
tRp187
(I1
(tg10
I00
S'\xdd\xa1.\x8c\xa1\xfcB@'
tbsg11
F1
ssI90
(dp188
g5
g6
(g7
(I0
tS'b'
tRp189
(I1
(tg10
I00
S'1\xe2\xb5\xfc\x95\x93;@'
tbsg11
F1
ssI91
(dp190
g5
g6
(g7
(I0
tS'b'
tRp191
(I1
(tg10
I00
S'\xed\xf3\xb9j\x0f\x11J@'
tbsg11
F1
ssI92
(dp192
g5
g6
(g7
(I0
tS'b'
tRp193
(I1
(tg10
I00
S'\xb4\xb1p\xc3\xe2\x0f8@'
tbsg11
F1
ssI93
(dp194
g5
g6
(g7
(I0
tS'b'
tRp195
(I1
(tg10
I00
S'\xde\xdfB\xf5\x9dm7@'
tbsg11
F1
ssI94
(dp196
g5
g6
(g7
(I0
tS'b'
tRp197
(I1
(tg10
I00
S'\x9b\xcc\x9f\x9f\xbe\xfc5@'
tbsg11
F1
ssI95
(dp198
g5
g6
(g7
(I0
tS'b'
tRp199
(I1
(tg10
I00
S'\x0e\x98\xea\x167\x8d:@'
tbsg11
F1
ssI96
(dp200
g5
g6
(g7
(I0
tS'b'
tRp201
(I1
(tg10
I00
S'\xde\x9c<\xf5\xfe\xb17@'
tbsg11
F1
ssI97
(dp202
g5
g6
(g7
(I0
tS'b'
tRp203
(I1
(tg10
I00
S'wyA *\xf2@@'
tbsg11
F1
ssI98
(dp204
g5
g6
(g7
(I0
tS'b'
tRp205
(I1
(tg10
I00
S'\xd4\x89$!\xb0\x1f5@'
tbsg11
F1
ssI99
(dp206
g5
g6
(g7
(I0
tS'b'
tRp207
(I1
(tg10
I00
S'\xb8oyO\xa2\x9b@@'
tbsg11
F1
ssI100
(dp208
g5
g6
(g7
(I0
tS'b'
tRp209
(I1
(tg10
I00
S'\xde\x06\xd8i\x8c\xe9A@'
tbsg11
F1
sS'saved_to'
p210
(lp211
S'D:\\users\\chxing\\aaai2017Exp\\JPdata\\r50maxcount.q1min10max.2-20.1-20\\s2sa_topicAwareGeneration\\/params.npz.100'
p212
aS'D:\\users\\chxing\\aaai2017Exp\\JPdata\\r50maxcount.q1min10max.2-20.1-20\\s2sa_topicAwareGeneration\\/iterations_state.pkl.100'
p213
aS'D:\\users\\chxing\\aaai2017Exp\\JPdata\\r50maxcount.q1min10max.2-20.1-20\\s2sa_topicAwareGeneration\\/log.100'
p214
assI101
(dp215
g5
g6
(g7
(I0
tS'b'
tRp216
(I1
(tg10
I00
S'\xa0T\x11\x1c-\xcb:@'
tbsg11
F1
ssI102
(dp217
g5
g6
(g7
(I0
tS'b'
tRp218
(I1
(tg10
I00
S'\x0c\x92y\x8e\x82[C@'
tbsg11
F1
ssI103
(dp219
g5
g6
(g7
(I0
tS'b'
tRp220
(I1
(tg10
I00
S'\xc6=\xda\xca\x1dV3@'
tbsg11
F1
ssI104
(dp221
g5
g6
(g7
(I0
tS'b'
tRp222
(I1
(tg10
I00
S',\x8b\x940"i5@'
tbsg11
F1
ssI105
(dp223
g5
g6
(g7
(I0
tS'b'
tRp224
(I1
(tg10
I00
S'\xcc\x81\x80\x18\xd4\xbc2@'
tbsg11
F1
ssI106
(dp225
g5
g6
(g7
(I0
tS'b'
tRp226
(I1
(tg10
I00
S'$7\xf9\xca\x15\xcd6@'
tbsg11
F1
ssI107
(dp227
g5
g6
(g7
(I0
tS'b'
tRp228
(I1
(tg10
I00
S'\x88\x8c3\x1a\x06p5@'
tbsg11
F1
ssI108
(dp229
g5
g6
(g7
(I0
tS'b'
tRp230
(I1
(tg10
I00
S'gW\x0b\x99\xca\xb79@'
tbsg11
F1
ssI109
(dp231
g5
g6
(g7
(I0
tS'b'
tRp232
(I1
(tg10
I00
S'\x17\xd0\xf3\xedI\x7f6@'
tbsg11
F1
ssI110
(dp233
g5
g6
(g7
(I0
tS'b'
tRp234
(I1
(tg10
I00
S'g\xdf\xa5\\n\x8b8@'
tbsg11
F1
ssI111
(dp235
g5
g6
(g7
(I0
tS'b'
tRp236
(I1
(tg10
I00
S'L\xf8\xcf\x8f\x96t?@'
tbsg11
F1
ssI112
(dp237
g5
g6
(g7
(I0
tS'b'
tRp238
(I1
(tg10
I00
S'Z\xe4\t\xbd\x02n;@'
tbsg11
F1
ssI113
(dp239
g5
g6
(g7
(I0
tS'b'
tRp240
(I1
(tg10
I00
S'\xdb\xe0\xbf\xc8\xb7\xba@@'
tbsg11
F1
ssI114
(dp241
g5
g6
(g7
(I0
tS'b'
tRp242
(I1
(tg10
I00
S'6\x960["\xca1@'
tbsg11
F1
ssI115
(dp243
g5
g6
(g7
(I0
tS'b'
tRp244
(I1
(tg10
I00
S'\x82C\x14\xb1\xc7Z4@'
tbsg11
F1
ssI116
(dp245
g5
g6
(g7
(I0
tS'b'
tRp246
(I1
(tg10
I00
S'\x16WD\xb4\xd3\xfa0@'
tbsg11
F1
ssI117
(dp247
g5
g6
(g7
(I0
tS'b'
tRp248
(I1
(tg10
I00
S'\x04P\xc4"\xb8\xca5@'
tbsg11
F1
ssI118
(dp249
g5
g6
(g7
(I0
tS'b'
tRp250
(I1
(tg10
I00
S'\x85\xad\x98a\x11\x8f4@'
tbsg11
F1
ssI119
(dp251
g5
g6
(g7
(I0
tS'b'
tRp252
(I1
(tg10
I00
S'9\xea\xdcy\x86\xd16@'
tbsg11
F1
ssI120
(dp253
g5
g6
(g7
(I0
tS'b'
tRp254
(I1
(tg10
I00
S'\xe9\x06\xadD\xff\xa45@'
tbsg11
F1
ssI121
(dp255
g5
g6
(g7
(I0
tS'b'
tRp256
(I1
(tg10
I00
S'\x83{\xaeE\t"6@'
tbsg11
F1
ssI122
(dp257
g5
g6
(g7
(I0
tS'b'
tRp258
(I1
(tg10
I00
S'N18\xa4\x8f&>@'
tbsg11
F1
ssI123
(dp259
g5
g6
(g7
(I0
tS'b'
tRp260
(I1
(tg10
I00
S'(\x9fI\xf3\xf2\x82;@'
tbsg11
F1
ssI124
(dp261
g5
g6
(g7
(I0
tS'b'
tRp262
(I1
(tg10
I00
S'\x977\x02\xcc\x0c_>@'
tbsg11
F1
ssI125
(dp263
g5
g6
(g7
(I0
tS'b'
tRp264
(I1
(tg10
I00
S'\xe0\x04\xe2\x98\xc6\xce0@'
tbsg11
F1
ssI126
(dp265
g5
g6
(g7
(I0
tS'b'
tRp266
(I1
(tg10
I00
S'\xbb\xb1m\x1b^\x8d3@'
tbsg11
F1
ssI127
(dp267
g5
g6
(g7
(I0
tS'b'
tRp268
(I1
(tg10
I00
S'\x01O\xa5U1\x060@'
tbsg11
F1
ssI128
(dp269
g5
g6
(g7
(I0
tS'b'
tRp270
(I1
(tg10
I00
S'\xf6\xe9*\xc3\xb6z4@'
tbsg11
F1
ssI129
(dp271
g5
g6
(g7
(I0
tS'b'
tRp272
(I1
(tg10
I00
S'\xe3(.\xca\x9b)3@'
tbsg11
F1
ssI130
(dp273
g5
g6
(g7
(I0
tS'b'
tRp274
(I1
(tg10
I00
S'\xec\x18A,\xf6\xb05@'
tbsg11
F1
ssI131
(dp275
g5
g6
(g7
(I0
tS'b'
tRp276
(I1
(tg10
I00
S'\x08\xd80\xb3\xe3\xd13@'
tbsg11
F1
ssI132
(dp277
g5
g6
(g7
(I0
tS'b'
tRp278
(I1
(tg10
I00
S'\xd3@h!\xfd\xdc:@'
tbsg11
F1
ssI133
(dp279
g5
g6
(g7
(I0
tS'b'
tRp280
(I1
(tg10
I00
S'\xf4\xa7\x1c\xc0W\xc3>@'
tbsg11
F1
ssI134
(dp281
g5
g6
(g7
(I0
tS'b'
tRp282
(I1
(tg10
I00
S'_\xac\xfd\x1be\xa57@'
tbsg11
F1
ssI135
(dp283
g5
g6
(g7
(I0
tS'b'
tRp284
(I1
(tg10
I00
S'-\xb95(\xeb\x9f<@'
tbsg11
F1
ssI136
(dp285
g5
g6
(g7
(I0
tS'b'
tRp286
(I1
(tg10
I00
S'\xa7$\xcf?\x97\xa1/@'
tbsg11
F1
ssI137
(dp287
g5
g6
(g7
(I0
tS'b'
tRp288
(I1
(tg10
I00
S'\xf2\xc2\xbe,\xb2\x953@'
tbsg11
F1
ssI138
(dp289
g5
g6
(g7
(I0
tS'b'
tRp290
(I1
(tg10
I00
S'\x8eJ\xd9\xec\x8a\xef/@'
tbsg11
F1
ssI139
(dp291
g5
g6
(g7
(I0
tS'b'
tRp292
(I1
(tg10
I00
S'X9\r\x13\x1cE3@'
tbsg11
F1
ssI140
(dp293
g5
g6
(g7
(I0
tS'b'
tRp294
(I1
(tg10
I00
S'_\x9e3+\xca\x9e3@'
tbsg11
F1
ssI141
(dp295
g5
g6
(g7
(I0
tS'b'
tRp296
(I1
(tg10
I00
S'\x11\xeb\t\xaf\x81\x8eN@'
tbsg11
F1
ssI142
(dp297
g5
g6
(g7
(I0
tS'b'
tRp298
(I1
(tg10
I00
S'\x9f\x0b\xe1\x00\x06M3@'
tbsg11
F1
ssI143
(dp299
g5
g6
(g7
(I0
tS'b'
tRp300
(I1
(tg10
I00
S'u&\x95\xaftQ<@'
tbsg11
F1
ssI144
(dp301
g5
g6
(g7
(I0
tS'b'
tRp302
(I1
(tg10
I00
S'K\xf0\x83L\x1b\xc2:@'
tbsg11
F1
ssI145
(dp303
g5
g6
(g7
(I0
tS'b'
tRp304
(I1
(tg10
I00
S'2\xf7\xae\x1e\xc1\xa33@'
tbsg11
F1
ssI146
(dp305
g5
g6
(g7
(I0
tS'b'
tRp306
(I1
(tg10
I00
S'\x16\x14\xc6\xd2\xd3\xc4<@'
tbsg11
F1
ssI147
(dp307
g5
g6
(g7
(I0
tS'b'
tRp308
(I1
(tg10
I00
S'pe"B\xd4\xfa1@'
tbsg11
F1
ssI148
(dp309
g5
g6
(g7
(I0
tS'b'
tRp310
(I1
(tg10
I00
S'\x9f/\xa5\xb1\xe9}1@'
tbsg11
F1
ssI149
(dp311
g5
g6
(g7
(I0
tS'b'
tRp312
(I1
(tg10
I00
S'\xfe\xe1`\xf2v\xc2.@'
tbsg11
F1
ssI150
(dp313
g5
g6
(g7
(I0
tS'b'
tRp314
(I1
(tg10
I00
S'b\x8af\rn\x8e2@'
tbsg11
F1
ssI151
(dp315
g5
g6
(g7
(I0
tS'b'
tRp316
(I1
(tg10
I00
S'\x97%FN\xa9\xce1@'
tbsg11
F1
ssI152
(dp317
g5
g6
(g7
(I0
tS'b'
tRp318
(I1
(tg10
I00
S'\xb3\xec\xd5\x0bKJ5@'
tbsg11
F1
ssI153
(dp319
g5
g6
(g7
(I0
tS'b'
tRp320
(I1
(tg10
I00
S'\\"\xf3\xec\xc0\x122@'
tbsg11
F1
ssI154
(dp321
g5
g6
(g7
(I0
tS'b'
tRp322
(I1
(tg10
I00
S'\xcf7\xb0\x1cwF5@'
tbsg11
F1
ssI155
(dp323
g5
g6
(g7
(I0
tS'b'
tRp324
(I1
(tg10
I00
S'\xaf\xfc\xa7\x12\x14]<@'
tbsg11
F1
ssI156
(dp325
g5
g6
(g7
(I0
tS'b'
tRp326
(I1
(tg10
I00
S'J\xae\xc3\xf9\xff\xc97@'
tbsg11
F1
ssI157
(dp327
g5
g6
(g7
(I0
tS'b'
tRp328
(I1
(tg10
I00
S'\x9d\xd5\x16\x9dTt9@'
tbsg11
F1
ssI158
(dp329
g5
g6
(g7
(I0
tS'b'
tRp330
(I1
(tg10
I00
S' \xff\xe2\xc7\xa46.@'
tbsg11
F1
ssI159
(dp331
g5
g6
(g7
(I0
tS'b'
tRp332
(I1
(tg10
I00
S'm\xb8\xd4\xe9\xefC2@'
tbsg11
F1
ssI160
(dp333
g5
g6
(g7
(I0
tS'b'
tRp334
(I1
(tg10
I00
S'\x91\xed\x90\xc2\x99\x82.@'
tbsg11
F1
ssI161
(dp335
g5
g6
(g7
(I0
tS'b'
tRp336
(I1
(tg10
I00
S'\xeb\x8fo\x96\x1dt5@'
tbsg11
F1
ssI162
(dp337
g5
g6
(g7
(I0
tS'b'
tRp338
(I1
(tg10
I00
S'\xfe\xcd!C\xb0\x82@@'
tbsg11
F1
ssI163
(dp339
g5
g6
(g7
(I0
tS'b'
tRp340
(I1
(tg10
I00
S'UUU\x85\x89\x91>@'
tbsg11
F1
ssI164
(dp341
g5
g6
(g7
(I0
tS'b'
tRp342
(I1
(tg10
I00
S"\r'\xc1\xba\x88`5@"
tbsg11
F1
ssI165
(dp343
g5
g6
(g7
(I0
tS'b'
tRp344
(I1
(tg10
I00
S'\x1aH\xe7A\xc7\xdf1@'
tbsg11
F1
ssI166
(dp345
g5
g6
(g7
(I0
tS'b'
tRp346
(I1
(tg10
I00
S'\xc1\x17EJk[:@'
tbsg11
F1
ssI167
(dp347
g5
g6
(g7
(I0
tS'b'
tRp348
(I1
(tg10
I00
S'=\xf4\x86phi7@'
tbsg11
F1
ssI168
(dp349
g5
g6
(g7
(I0
tS'b'
tRp350
(I1
(tg10
I00
S'\xfb\x8dyG\xb5\x8b9@'
tbsg11
F1
ssI169
(dp351
g5
g6
(g7
(I0
tS'b'
tRp352
(I1
(tg10
I00
S'\xd8g\nd?\xa5/@'
tbsg11
F1
ssI170
(dp353
g5
g6
(g7
(I0
tS'b'
tRp354
(I1
(tg10
I00
S'\xca\x0e\xe2nT\xf40@'
tbsg11
F1
ssI171
(dp355
g5
g6
(g7
(I0
tS'b'
tRp356
(I1
(tg10
I00
S'\r\x07\x98Jg\xa2,@'
tbsg11
F1
ssI172
(dp357
g5
g6
(g7
(I0
tS'b'
tRp358
(I1
(tg10
I00
S'o\x93G_\x80\xe52@'
tbsg11
F1
ssI173
(dp359
g5
g6
(g7
(I0
tS'b'
tRp360
(I1
(tg10
I00
S'\x7f\xeb\xe1\xba\xc4\xde:@'
tbsg11
F1
ssI174
(dp361
g5
g6
(g7
(I0
tS'b'
tRp362
(I1
(tg10
I00
S'\xde\xf4\x98\x83ikD@'
tbsg11
F1
ssI175
(dp363
g5
g6
(g7
(I0
tS'b'
tRp364
(I1
(tg10
I00
S'\xdcc\x1e\x19L\xec2@'
tbsg11
F1
ssI176
(dp365
g5
g6
(g7
(I0
tS'b'
tRp366
(I1
(tg10
I00
S'\xf9e8\t<V1@'
tbsg11
F1
ssI177
(dp367
g5
g6
(g7
(I0
tS'b'
tRp368
(I1
(tg10
I00
S'\x93jo\xaa\x1f\x1d9@'
tbsg11
F1
ssI178
(dp369
g5
g6
(g7
(I0
tS'b'
tRp370
(I1
(tg10
I00
S'\xfc\x1eE\xc2\x8f\xc65@'
tbsg11
F1
ssI179
(dp371
g5
g6
(g7
(I0
tS'b'
tRp372
(I1
(tg10
I00
S'\xb28\xb2\xdbK19@'
tbsg11
F1
ssI180
(dp373
g5
g6
(g7
(I0
tS'b'
tRp374
(I1
(tg10
I00
S'\x81\xa9\x82\xc7\x1eZ0@'
tbsg11
F1
ssI181
(dp375
g5
g6
(g7
(I0
tS'b'
tRp376
(I1
(tg10
I00
S'\xd3D\x85?\xd0G0@'
tbsg11
F1
ssI182
(dp377
g5
g6
(g7
(I0
tS'b'
tRp378
(I1
(tg10
I00
S'\x11\xac\xb0\xd55\xd7+@'
tbsg11
F1
ssI183
(dp379
g5
g6
(g7
(I0
tS'b'
tRp380
(I1
(tg10
I00
S'\x92K|\x05\x1d\x962@'
tbsg11
F1
ssI184
(dp381
g5
g6
(g7
(I0
tS'b'
tRp382
(I1
(tg10
I00
S'\\P\xfe\xcbY\xd7;@'
tbsg11
F1
ssI185
(dp383
g5
g6
(g7
(I0
tS'b'
tRp384
(I1
(tg10
I00
S':\xbd\xe90\xdd\x83B@'
tbsg11
F1
ssI186
(dp385
g5
g6
(g7
(I0
tS'b'
tRp386
(I1
(tg10
I00
S'nc\xda\tv\xfe2@'
tbsg11
F1
ssI187
(dp387
g5
g6
(g7
(I0
tS'b'
tRp388
(I1
(tg10
I00
S'\xb4\xe9\x08\xc5C\x9a0@'
tbsg11
F1
ssI188
(dp389
g5
g6
(g7
(I0
tS'b'
tRp390
(I1
(tg10
I00
S'\xd1\xc0[\xae\x10\x8b8@'
tbsg11
F1
ssI189
(dp391
g5
g6
(g7
(I0
tS'b'
tRp392
(I1
(tg10
I00
S'\x1c\xabt\xf3\x97\xdd5@'
tbsg11
F1
ssI190
(dp393
g5
g6
(g7
(I0
tS'b'
tRp394
(I1
(tg10
I00
S'\xa3\x9b\xf1\t\x9ar8@'
tbsg11
F1
ssI191
(dp395
g5
g6
(g7
(I0
tS'b'
tRp396
(I1
(tg10
I00
S'\xfaj\x1er\r\x050@'
tbsg11
F1
ssI192
(dp397
g5
g6
(g7
(I0
tS'b'
tRp398
(I1
(tg10
I00
S'E\x8am\xf9\x84\x070@'
tbsg11
F1
ssI193
(dp399
g5
g6
(g7
(I0
tS'b'
tRp400
(I1
(tg10
I00
S'JcI}u$+@'
tbsg11
F1
ssI194
(dp401
g5
g6
(g7
(I0
tS'b'
tRp402
(I1
(tg10
I00
S'\x0c\xaf\xadj\x86\x912@'
tbsg11
F1
ssI195
(dp403
g5
g6
(g7
(I0
tS'b'
tRp404
(I1
(tg10
I00
S'\x1a\x14\xbe\x9b\\\xc1<@'
tbsg11
F1
ssI196
(dp405
g5
g6
(g7
(I0
tS'b'
tRp406
(I1
(tg10
I00
S'\xceP\x19\xadc\xf1@@'
tbsg11
F1
ssI197
(dp407
g5
g6
(g7
(I0
tS'b'
tRp408
(I1
(tg10
I00
S'R\xd0\xf7\x93H\xf52@'
tbsg11
F1
ssI198
(dp409
g5
g6
(g7
(I0
tS'b'
tRp410
(I1
(tg10
I00
S'\xe0X\x0c\x84\xcd70@'
tbsg11
F1
ssI199
(dp411
g5
g6
(g7
(I0
tS'b'
tRp412
(I1
(tg10
I00
S'Xp\x92[\xde$8@'
tbsg11
F1
ssI200
(dp413
g5
g6
(g7
(I0
tS'b'
tRp414
(I1
(tg10
I00
S"]\xfch'\xab\xef5@"
tbsg11
F1
sg210
(lp415
S'D:\\users\\chxing\\aaai2017Exp\\JPdata\\r50maxcount.q1min10max.2-20.1-20\\s2sa_topicAwareGeneration\\/params.npz.200'
p416
aS'D:\\users\\chxing\\aaai2017Exp\\JPdata\\r50maxcount.q1min10max.2-20.1-20\\s2sa_topicAwareGeneration\\/iterations_state.pkl.200'
p417
aS'D:\\users\\chxing\\aaai2017Exp\\JPdata\\r50maxcount.q1min10max.2-20.1-20\\s2sa_topicAwareGeneration\\/log.200'
p418
assI201
(dp419
g5
g6
(g7
(I0
tS'b'
tRp420
(I1
(tg10
I00
S'R\xbb\xc9\xa8L\xaf7@'
tbsg11
F1
ssI202
(dp421
g5
g6
(g7
(I0
tS'b'
tRp422
(I1
(tg10
I00
S'\xb5\x92T\x88rG/@'
tbsg11
F1
ssI203
(dp423
g5
g6
(g7
(I0
tS'b'
tRp424
(I1
(tg10
I00
S'K\x9a\x01\xce\xbb\xbd/@'
tbsg11
F1
ssI204
(dp425
g5
g6
(g7
(I0
tS'b'
tRp426
(I1
(tg10
I00
S'\x8f]\xd4\x07\x14\xa0*@'
tbsg11
F1
ssI205
(dp427
g5
g6
(g7
(I0
tS'b'
tRp428
(I1
(tg10
I00
S'`\x15.\x0f\xe1r2@'
tbsg11
F1
ssI206
(dp429
g5
g6
(g7
(I0
tS'b'
tRp430
(I1
(tg10
I00
S'\xcf\x05\x88\xaa\x8c\xc5<@'
tbsg11
F1
ssI207
(dp431
g5
g6
(g7
(I0
tS'b'
tRp432
(I1
(tg10
I00
S'BI\xac\x11x&@@'
tbsg11
F1
ssI208
(dp433
g5
g6
(g7
(I0
tS'b'
tRp434
(I1
(tg10
I00
S'\x81\xbf\xb3Ua\xb12@'
tbsg11
F1
ssI209
(dp435
g5
g6
(g7
(I0
tS'b'
tRp436
(I1
(tg10
I00
S':\xf1\x18\x10c\x050@'
tbsg11
F1
ssI210
(dp437
g5
g6
(g7
(I0
tS'b'
tRp438
(I1
(tg10
I00
S'\xb8=B\xffj\xa97@'
tbsg11
F1
ssI211
(dp439
g5
g6
(g7
(I0
tS'b'
tRp440
(I1
(tg10
I00
S'\xf9p\xc6\xe7]\xc75@'
tbsg11
F1
ssI212
(dp441
g5
g6
(g7
(I0
tS'b'
tRp442
(I1
(tg10
I00
S'\xcb\x8aF\xe2\x91\x017@'
tbsg11
F1
ssI213
(dp443
g5
g6
(g7
(I0
tS'b'
tRp444
(I1
(tg10
I00
S'\x82\xa8\rj\xc1\xb5.@'
tbsg11
F1
ssI214
(dp445
g5
g6
(g7
(I0
tS'b'
tRp446
(I1
(tg10
I00
S'\xe0\x12\xed\x0e?_/@'
tbsg11
F1
ssI215
(dp447
g5
g6
(g7
(I0
tS'b'
tRp448
(I1
(tg10
I00
S'za-\xb4\x15\r*@'
tbsg11
F1
ssI216
(dp449
g5
g6
(g7
(I0
tS'b'
tRp450
(I1
(tg10
I00
S'*\x98\xf1^\xbd\x182@'
tbsg11
F1
ssI217
(dp451
g5
g6
(g7
(I0
tS'b'
tRp452
(I1
(tg10
I00
S"\x0c'~\xbc\xb1W<@"
tbsg11
F1
ssI218
(dp453
g5
g6
(g7
(I0
tS'b'
tRp454
(I1
(tg10
I00
S'R!\x88Gh\xc1?@'
tbsg11
F1
ssI219
(dp455
g5
g6
(g7
(I0
tS'b'
tRp456
(I1
(tg10
I00
S' \xdb\xda]\xeaL2@'
tbsg11
F1
ssI220
(dp457
g5
g6
(g7
(I0
tS'b'
tRp458
(I1
(tg10
I00
S'\x88\xf3L\x80\xc8\x95/@'
tbsg11
F1
ssI221
(dp459
g5
g6
(g7
(I0
tS'b'
tRp460
(I1
(tg10
I00
S'\x181\x05\xb8\x1a(7@'
tbsg11
F1
ssI222
(dp461
g5
g6
(g7
(I0
tS'b'
tRp462
(I1
(tg10
I00
S'(\xfa\xc0@"\x995@'
tbsg11
F1
ssI223
(dp463
g5
g6
(g7
(I0
tS'b'
tRp464
(I1
(tg10
I00
S'(\x13\x1b\x98\xcam6@'
tbsg11
F1
ssI224
(dp465
g5
g6
(g7
(I0
tS'b'
tRp466
(I1
(tg10
I00
S'o\n]\x04\x8dV.@'
tbsg11
F1
ssI225
(dp467
g5
g6
(g7
(I0
tS'b'
tRp468
(I1
(tg10
I00
S'\xbd?\x95\x8d7\xf3.@'
tbsg11
F1
ssI226
(dp469
g5
g6
(g7
(I0
tS'b'
tRp470
(I1
(tg10
I00
S'\xa0\x1d7\xc2\x19~)@'
tbsg11
F1
ssI227
(dp471
g5
g6
(g7
(I0
tS'b'
tRp472
(I1
(tg10
I00
S'\x8d\xb3\xaf\xe4\x8c\xd31@'
tbsg11
F1
ssI228
(dp473
g5
g6
(g7
(I0
tS'b'
tRp474
(I1
(tg10
I00
S'\x95\xc9c\x9d\xb9\x16<@'
tbsg11
F1
ssI229
(dp475
g5
g6
(g7
(I0
tS'b'
tRp476
(I1
(tg10
I00
S'n\x98\x91\xf7\xbe\x0e?@'
tbsg11
F1
ssI230
(dp477
g5
g6
(g7
(I0
tS'b'
tRp478
(I1
(tg10
I00
S'\xe3\xba\xf9n\x0c\xf81@'
tbsg11
F1
ssI231
(dp479
g5
g6
(g7
(I0
tS'b'
tRp480
(I1
(tg10
I00
S'?\xc3\x8b\xed\xd08/@'
tbsg11
F1
ssI232
(dp481
g5
g6
(g7
(I0
tS'b'
tRp482
(I1
(tg10
I00
S'\x85\xf0\xe3\x9b\xf3\xb06@'
tbsg11
F1
ssI233
(dp483
g5
g6
(g7
(I0
tS'b'
tRp484
(I1
(tg10
I00
S'\x1b\xe58,1b5@'
tbsg11
F1
ssI234
(dp485
g5
g6
(g7
(I0
tS'b'
tRp486
(I1
(tg10
I00
S'\xc9\x15&\xa7\x8e\xe85@'
tbsg11
F1
ssI235
(dp487
g5
g6
(g7
(I0
tS'b'
tRp488
(I1
(tg10
I00
S'\xe6\x04\xdf\xf7\xb5\xf7-@'
tbsg11
F1
ssI236
(dp489
g5
g6
(g7
(I0
tS'b'
tRp490
(I1
(tg10
I00
S'j6\xf0\xad\xc2\x91.@'
tbsg11
F1
ssI237
(dp491
g5
g6
(g7
(I0
tS'b'
tRp492
(I1
(tg10
I00
S'\x7f%\x05\xe1\xdd\xf4(@'
tbsg11
F1
ssI238
(dp493
g5
g6
(g7
(I0
tS'b'
tRp494
(I1
(tg10
I00
S'M\xb7\xff\x14\xd9\x8b1@'
tbsg11
F1
ssI239
(dp495
g5
g6
(g7
(I0
tS'b'
tRp496
(I1
(tg10
I00
S';\x0e\x9a\x1c\x1e\xc9;@'
tbsg11
F1
ssI240
(dp497
g5
g6
(g7
(I0
tS'b'
tRp498
(I1
(tg10
I00
S'\x16\x81%o\x16\x8e>@'
tbsg11
F1
ssI241
(dp499
g5
g6
(g7
(I0
tS'b'
tRp500
(I1
(tg10
I00
S'\xf9\xed\xa9\xb6\xb8\x9d1@'
tbsg11
F1
ssI242
(dp501
g5
g6
(g7
(I0
tS'b'
tRp502
(I1
(tg10
I00
S'\xad\xddv\xa8\xfc\xc8.@'
tbsg11
F1
ssI243
(dp503
g5
g6
(g7
(I0
tS'b'
tRp504
(I1
(tg10
I00
S'\xc78\\F\xfc36@'
tbsg11
F1
ssI244
(dp505
g5
g6
(g7
(I0
tS'b'
tRp506
(I1
(tg10
I00
S']\xc8i\x03\xed,5@'
tbsg11
F1
ssI245
(dp507
g5
g6
(g7
(I0
tS'b'
tRp508
(I1
(tg10
I00
S'\x8d&\x1b0\xfep5@'
tbsg11
F1
ssI246
(dp509
g5
g6
(g7
(I0
tS'b'
tRp510
(I1
(tg10
I00
S'\xb0l\x8d\x06t\xa3-@'
tbsg11
F1
ssI247
(dp511
g5
g6
(g7
(I0
tS'b'
tRp512
(I1
(tg10
I00
S'\xfe\x9b5\x14n=.@'
tbsg11
F1
ssI248
(dp513
g5
g6
(g7
(I0
tS'b'
tRp514
(I1
(tg10
I00
S'\x97\x86\xf7\x91\xaf\x87(@'
tbsg11
F1
ssI249
(dp515
g5
g6
(g7
(I0
tS'b'
tRp516
(I1
(tg10
I00
S'\xe5ss;\xe8y1@'
tbsg11
F1
ssI250
(dp517
g5
g6
(g7
(I0
tS'b'
tRp518
(I1
(tg10
I00
S'`\x8d\xb4\x00j\xa7;@'
tbsg11
F1
ssI251
(dp519
g5
g6
(g7
(I0
tS'b'
tRp520
(I1
(tg10
I00
S'\xbe\xae\x7fp\xe6}=@'
tbsg11
F1
ssI252
(dp521
g5
g6
(g7
(I0
tS'b'
tRp522
(I1
(tg10
I00
S'(d\xa4\xf7\x8ac1@'
tbsg11
F1
ssI253
(dp523
g5
g6
(g7
(I0
tS'b'
tRp524
(I1
(tg10
I00
S'\x00\xdeV\x01B\x8c.@'
tbsg11
F1
ssI254
(dp525
g5
g6
(g7
(I0
tS'b'
tRp526
(I1
(tg10
I00
S'\x88\x1eE4]\xc85@'
tbsg11
F1
ssI255
(dp527
g5
g6
(g7
(I0
tS'b'
tRp528
(I1
(tg10
I00
S'w\x19\x9d4s\x005@'
tbsg11
F1
ssI256
(dp529
g5
g6
(g7
(I0
tS'b'
tRp530
(I1
(tg10
I00
S'\xd9T*cP\xfd4@'
tbsg11
F1
ssI257
(dp531
g5
g6
(g7
(I0
tS'b'
tRp532
(I1
(tg10
I00
S'"7\xd9p\xd27-@'
tbsg11
F1
ssI258
(dp533
g5
g6
(g7
(I0
tS'b'
tRp534
(I1
(tg10
I00
S'0\xd6\x0f\x8e\xd6\xeb-@'
tbsg11
F1
ssI259
(dp535
g5
g6
(g7
(I0
tS'b'
tRp536
(I1
(tg10
I00
S'\x02\x7f\xe8\xfc\xaa\x02(@'
tbsg11
F1
ssI260
(dp537
g5
g6
(g7
(I0
tS'b'
tRp538
(I1
(tg10
I00
S"Z'\xd3\xc6s!1@"
tbsg11
F1
ssI261
(dp539
g5
g6
(g7
(I0
tS'b'
tRp540
(I1
(tg10
I00
S'\x7f\xf6\xf1A\xfe@;@'
tbsg11
F1
ssI262
(dp541
g5
g6
(g7
(I0
tS'b'
tRp542
(I1
(tg10
I00
S'\xcd<\x08\xfa>@=@'
tbsg11
F1
ssI263
(dp543
g5
g6
(g7
(I0
tS'b'
tRp544
(I1
(tg10
I00
S'6\xbe\xe1\xfe\xab\x021@'
tbsg11
F1
ssI264
(dp545
g5
g6
(g7
(I0
tS'b'
tRp546
(I1
(tg10
I00
S'\xa6A\xe0U*\x1a.@'
tbsg11
F1
ssI265
(dp547
g5
g6
(g7
(I0
tS'b'
tRp548
(I1
(tg10
I00
S'\xfdT\x810\x03H5@'
tbsg11
F1
ssI266
(dp549
g5
g6
(g7
(I0
tS'b'
tRp550
(I1
(tg10
I00
S'\xed9\x15\xd9\xd5\xaa4@'
tbsg11
F1
ssI267
(dp551
g5
g6
(g7
(I0
tS'b'
tRp552
(I1
(tg10
I00
S'p\xb7x+0\xa74@'
tbsg11
F1
ssI268
(dp553
g5
g6
(g7
(I0
tS'b'
tRp554
(I1
(tg10
I00
S'\xb8\xda\xa9\x0b\xe9\xed,@'
tbsg11
F1
ssI269
(dp555
g5
g6
(g7
(I0
tS'b'
tRp556
(I1
(tg10
I00
S'~z\xe5Z\x06t-@'
tbsg11
F1
ssI270
(dp557
g5
g6
(g7
(I0
tS'b'
tRp558
(I1
(tg10
I00
S"\xdfO\xa7\xf6\x19n'@"
tbsg11
F1
ssI271
(dp559
g5
g6
(g7
(I0
tS'b'
tRp560
(I1
(tg10
I00
S'\xb9\n\xffD\x14\x960@'
tbsg11
F1
ssI272
(dp561
g5
g6
(g7
(I0
tS'b'
tRp562
(I1
(tg10
I00
S'$\x84\x1d\xf5-\x94:@'
tbsg11
F1
ssI273
(dp563
g5
g6
(g7
(I0
tS'b'
tRp564
(I1
(tg10
I00
S'\x86:l\x98\x12P=@'
tbsg11
F1
ssI274
(dp565
g5
g6
(g7
(I0
tS'b'
tRp566
(I1
(tg10
I00
S'\x84\xd6,y\x9a\x940@'
tbsg11
F1
ssI275
(dp567
g5
g6
(g7
(I0
tS'b'
tRp568
(I1
(tg10
I00
S'M\xb9\xcfz\xf6\x8b-@'
tbsg11
F1
ssI276
(dp569
g5
g6
(g7
(I0
tS'b'
tRp570
(I1
(tg10
I00
S'i\x1dp\xbdU\xce4@'
tbsg11
F1
ssI277
(dp571
g5
g6
(g7
(I0
tS'b'
tRp572
(I1
(tg10
I00
S'\x97;\xb55HL4@'
tbsg11
F1
ssI278
(dp573
g5
g6
(g7
(I0
tS'b'
tRp574
(I1
(tg10
I00
S'm\xb0\xaemvZ4@'
tbsg11
F1
ssI279
(dp575
g5
g6
(g7
(I0
tS'b'
tRp576
(I1
(tg10
I00
S'&\x14\x9f:v\xc1,@'
tbsg11
F1
ssI280
(dp577
g5
g6
(g7
(I0
tS'b'
tRp578
(I1
(tg10
I00
S"\x81-\xb5\xdan'-@"
tbsg11
F1
ssI281
(dp579
g5
g6
(g7
(I0
tS'b'
tRp580
(I1
(tg10
I00
S"QB-\x1e\xd8\x00'@"
tbsg11
F1
ssI282
(dp581
g5
g6
(g7
(I0
tS'b'
tRp582
(I1
(tg10
I00
S'\xbb\xd6\x8fF\xa8\xbc0@'
tbsg11
F1
ssI283
(dp583
g5
g6
(g7
(I0
tS'b'
tRp584
(I1
(tg10
I00
S'\x14NNTS\xc3:@'
tbsg11
F1
ssI284
(dp585
g5
g6
(g7
(I0
tS'b'
tRp586
(I1
(tg10
I00
S'\xca\x1e\xd2\xe7\xb6\xf5;@'
tbsg11
F1
ssI285
(dp587
g5
g6
(g7
(I0
tS'b'
tRp588
(I1
(tg10
I00
S'\xcaP\xaaD\xbfm0@'
tbsg11
F1
ssI286
(dp589
g5
g6
(g7
(I0
tS'b'
tRp590
(I1
(tg10
I00
S'\x8fd\xa6P\xadp-@'
tbsg11
F1
ssI287
(dp591
g5
g6
(g7
(I0
tS'b'
tRp592
(I1
(tg10
I00
S'+\xc0\xd4o\x07Q4@'
tbsg11
F1
ssI288
(dp593
g5
g6
(g7
(I0
tS'b'
tRp594
(I1
(tg10
I00
S'\x1d\x90\xe4\xeb\xdd\xe83@'
tbsg11
F1
ssI289
(dp595
g5
g6
(g7
(I0
tS'b'
tRp596
(I1
(tg10
I00
S'\xf8\x0f\x96\x18r\x084@'
tbsg11
F1
ssI290
(dp597
g5
g6
(g7
(I0
tS'b'
tRp598
(I1
(tg10
I00
S'\x1f\xde\xb8\x18|?,@'
tbsg11
F1
ssI291
(dp599
g5
g6
(g7
(I0
tS'b'
tRp600
(I1
(tg10
I00
S'\t\xfe\xb6\xb3C\xde,@'
tbsg11
F1
ssI292
(dp601
g5
g6
(g7
(I0
tS'b'
tRp602
(I1
(tg10
I00
S'#\x1d\xda0\xeaz&@'
tbsg11
F1
ssI293
(dp603
g5
g6
(g7
(I0
tS'b'
tRp604
(I1
(tg10
I00
S'\xa1\xce\xdfGf\x130@'
tbsg11
F1
ssI294
(dp605
g5
g6
(g7
(I0
tS'b'
tRp606
(I1
(tg10
I00
S'pq\x1b\x9f\xde\xfc9@'
tbsg11
F1
ssI295
(dp607
g5
g6
(g7
(I0
tS'b'
tRp608
(I1
(tg10
I00
S'v\x89\x9aWH\x13<@'
tbsg11
F1
ssI296
(dp609
g5
g6
(g7
(I0
tS'b'
tRp610
(I1
(tg10
I00
S'\xda\xc9\x9c\xa9\x8b\xf9/@'
tbsg11
F1
ssI297
(dp611
g5
g6
(g7
(I0
tS'b'
tRp612
(I1
(tg10
I00
S'r\xa3\x16\xd2\x14\xf8,@'
tbsg11
F1
ssI298
(dp613
g5
g6
(g7
(I0
tS'b'
tRp614
(I1
(tg10
I00
S')\n\xae\x17t\xb03@'
tbsg11
F1
ssI299
(dp615
g5
g6
(g7
(I0
tS'b'
tRp616
(I1
(tg10
I00
S'|\xf4\xf97;k3@'
tbsg11
F1
ssI300
(dp617
g5
g6
(g7
(I0
tS'b'
tRp618
(I1
(tg10
I00
S'\xe5C\xbd\xf6\x1c\xd03@'
tbsg11
F1
sg210
(lp619
S'D:\\users\\chxing\\aaai2017Exp\\JPdata\\r50maxcount.q1min10max.2-20.1-20\\s2sa_topicAwareGeneration\\/params.npz.300'
p620
aS'D:\\users\\chxing\\aaai2017Exp\\JPdata\\r50maxcount.q1min10max.2-20.1-20\\s2sa_topicAwareGeneration\\/iterations_state.pkl.300'
p621
aS'D:\\users\\chxing\\aaai2017Exp\\JPdata\\r50maxcount.q1min10max.2-20.1-20\\s2sa_topicAwareGeneration\\/log.300'
p622
assI301
(dp623
g5
g6
(g7
(I0
tS'b'
tRp624
(I1
(tg10
I00
S'9&\xc1\xdc\xdb\x00,@'
tbsg11
F1
ssI302
(dp625
g5
g6
(g7
(I0
tS'b'
tRp626
(I1
(tg10
I00
S'\x90?\x91\xd8\xf5y,@'
tbsg11
F1
ssI303
(dp627
g5
g6
(g7
(I0
tS'b'
tRp628
(I1
(tg10
I00
S"Y'\xbf\x90`\xf8%@"
tbsg11
F1
ssI304
(dp629
g5
g6
(g7
(I0
tS'b'
tRp630
(I1
(tg10
I00
S'/\xd6Aey\x0c0@'
tbsg11
F1
ssI305
(dp631
g5
g6
(g7
(I0
tS'b'
tRp632
(I1
(tg10
I00
S'"\xe3\xd0[\x07\xd69@'
tbsg11
F1
ssI306
(dp633
g5
g6
(g7
(I0
tS'b'
tRp634
(I1
(tg10
I00
S'\x87\x8f?[&\xd3:@'
tbsg11
F1
ssI307
(dp635
g5
g6
(g7
(I0
tS'b'
tRp636
(I1
(tg10
I00
S'\xc7\xbc\x18e\xcf^/@'
tbsg11
F1
ssI308
(dp637
g5
g6
(g7
(I0
tS'b'
tRp638
(I1
(tg10
I00
S'\x89\x9b^\xa1Z\xaa,@'
tbsg11
F1
ssI309
(dp639
g5
g6
(g7
(I0
tS'b'
tRp640
(I1
(tg10
I00
S'\t\x90~Y\x02\xfe2@'
tbsg11
F1
ssI310
(dp641
g5
g6
(g7
(I0
tS'b'
tRp642
(I1
(tg10
I00
S'\xee\x1c\n_\x81\xda2@'
tbsg11
F1
ssI311
(dp643
g5
g6
(g7
(I0
tS'b'
tRp644
(I1
(tg10
I00
S'iE\x89-\xc5\x9c3@'
tbsg11
F1
ssI312
(dp645
g5
g6
(g7
(I0
tS'b'
tRp646
(I1
(tg10
I00
S'\xfa\xf3\x88\xf4\x96p+@'
tbsg11
F1
ssI313
(dp647
g5
g6
(g7
(I0
tS'b'
tRp648
(I1
(tg10
I00
S'\xa8@}\x9b\xd95,@'
tbsg11
F1
ssI314
(dp649
g5
g6
(g7
(I0
tS'b'
tRp650
(I1
(tg10
I00
S'\x93\xe2\x10\xd9"?%@'
tbsg11
F1
ssI315
(dp651
g5
g6
(g7
(I0
tS'b'
tRp652
(I1
(tg10
I00
S'\x1f\xb7\xe9\xc5Px/@'
tbsg11
F1
ssI316
(dp653
g5
g6
(g7
(I0
tS'b'
tRp654
(I1
(tg10
I00
S'\xe8\x81v\xc6\x1eT9@'
tbsg11
F1
ssI317
(dp655
g5
g6
(g7
(I0
tS'b'
tRp656
(I1
(tg10
I00
S'6i\xff\xfb\xc6\xd59@'
tbsg11
F1
ssI318
(dp657
g5
g6
(g7
(I0
tS'b'
tRp658
(I1
(tg10
I00
S'Y\xcd\x9c=\x16q.@'
tbsg11
F1
ssI319
(dp659
g5
g6
(g7
(I0
tS'b'
tRp660
(I1
(tg10
I00
S'\xfa\xcc\r{\xd5\x1d,@'
tbsg11
F1
ssI320
(dp661
g5
g6
(g7
(I0
tS'b'
tRp662
(I1
(tg10
I00
S'\x84\xa9\xd4\x0ew\x132@'
tbsg11
F1
ssI321
(dp663
g5
g6
(g7
(I0
tS'b'
tRp664
(I1
(tg10
I00
S'\xb1\x8ebT\xed\xea1@'
tbsg11
F1
ssI322
(dp665
g5
g6
(g7
(I0
tS'b'
tRp666
(I1
(tg10
I00
S'\xf7\xdc\xbf\xc7\xcf\x8c3@'
tbsg11
F1
ssI323
(dp667
g5
g6
(g7
(I0
tS'b'
tRp668
(I1
(tg10
I00
S'\x00pN\x1f\xc4\xc5*@'
tbsg11
F1
ssI324
(dp669
g5
g6
(g7
(I0
tS'b'
tRp670
(I1
(tg10
I00
S'o\xb1\x15t"\xce+@'
tbsg11
F1
ssI325
(dp671
g5
g6
(g7
(I0
tS'b'
tRp672
(I1
(tg10
I00
S'\xd6\x9b\xc0\xa3\x1eR$@'
tbsg11
F1
ssI326
(dp673
g5
g6
(g7
(I0
tS'b'
tRp674
(I1
(tg10
I00
S'\x05\xa8\xac\x01\r..@'
tbsg11
F1
ssI327
(dp675
g5
g6
(g7
(I0
tS'b'
tRp676
(I1
(tg10
I00
S'\x85\x1f\xa6\x85\xce\xaa8@'
tbsg11
F1
ssI328
(dp677
g5
g6
(g7
(I0
tS'b'
tRp678
(I1
(tg10
I00
S'\xa0\xbf\xd3\xcb\xa4?9@'
tbsg11
F1
ssI329
(dp679
g5
g6
(g7
(I0
tS'b'
tRp680
(I1
(tg10
I00
S'\xda\xd3>\x0e\xb9;-@'
tbsg11
F1
ssI330
(dp681
g5
g6
(g7
(I0
tS'b'
tRp682
(I1
(tg10
I00
S'T\xc9\xfd\x1a\x87`+@'
tbsg11
F1
ssI331
(dp683
g5
g6
(g7
(I0
tS'b'
tRp684
(I1
(tg10
I00
S'\x88=\x84\xb6\n\xf60@'
tbsg11
F1
ssI332
(dp685
g5
g6
(g7
(I0
tS'b'
tRp686
(I1
(tg10
I00
S'\x16\xd7u,}\xe60@'
tbsg11
F1
ssI333
(dp687
g5
g6
(g7
(I0
tS'b'
tRp688
(I1
(tg10
I00
S'\xae\rd\x1f(\x8f3@'
tbsg11
F1
ssI334
(dp689
g5
g6
(g7
(I0
tS'b'
tRp690
(I1
(tg10
I00
S';\xfb\x16\xa4\x80\x02*@'
tbsg11
F1
ssI335
(dp691
g5
g6
(g7
(I0
tS'b'
tRp692
(I1
(tg10
I00
S'do\xbf\xd8\xc7\x98+@'
tbsg11
F1
ssI336
(dp693
g5
g6
(g7
(I0
tS'b'
tRp694
(I1
(tg10
I00
S':\x93\xef+\xb52#@'
tbsg11
F1
ssI337
(dp695
g5
g6
(g7
(I0
tS'b'
tRp696
(I1
(tg10
I00
S'tg\xf6@\xaa\xc2,@'
tbsg11
F1
ssI338
(dp697
g5
g6
(g7
(I0
tS'b'
tRp698
(I1
(tg10
I00
S'\xe3\x05\xcd\x99,\xce7@'
tbsg11
F1
ssI339
(dp699
g5
g6
(g7
(I0
tS'b'
tRp700
(I1
(tg10
I00
S'\xe12\xce\xe6g\x858@'
tbsg11
F1
ssI340
(dp701
g5
g6
(g7
(I0
tS'b'
tRp702
(I1
(tg10
I00
S'\xa4\xcd\xd3>"\xbb+@'
tbsg11
F1
ssI341
(dp703
g5
g6
(g7
(I0
tS'b'
tRp704
(I1
(tg10
I00
S'\xcc\x840\xc8\xddi*@'
tbsg11
F1
ssI342
(dp705
g5
g6
(g7
(I0
tS'b'
tRp706
(I1
(tg10
I00
S'\x96\xd2\xac\xa7:\x86/@'
tbsg11
F1
ssI343
(dp707
g5
g6
(g7
(I0
tS'b'
tRp708
(I1
(tg10
I00
S'7#\xd13u\xe3/@'
tbsg11
F1
ssI344
(dp709
g5
g6
(g7
(I0
tS'b'
tRp710
(I1
(tg10
I00
S'm<wd\x98\x8c3@'
tbsg11
F1
ssI345
(dp711
g5
g6
(g7
(I0
tS'b'
tRp712
(I1
(tg10
I00
S'\xf9\xd37\x13\x87\xf3(@'
tbsg11
F1
ssI346
(dp713
g5
g6
(g7
(I0
tS'b'
tRp714
(I1
(tg10
I00
S'I\x90S\xa2 \x17,@'
tbsg11
F1
ssI347
(dp715
g5
g6
(g7
(I0
tS'b'
tRp716
(I1
(tg10
I00
S'R\xb6\x01VU\xf9!@'
tbsg11
F1
ssI348
(dp717
g5
g6
(g7
(I0
tS'b'
tRp718
(I1
(tg10
I00
S'\x19\x9c\x8fzV\xfb*@'
tbsg11
F1
ssI349
(dp719
g5
g6
(g7
(I0
tS'b'
tRp720
(I1
(tg10
I00
S'\xa5A\x04Sx\x8f6@'
tbsg11
F1
ssI350
(dp721
g5
g6
(g7
(I0
tS'b'
tRp722
(I1
(tg10
I00
S'\xe4B\xc26X]8@'
tbsg11
F1
ssI351
(dp723
g5
g6
(g7
(I0
tS'b'
tRp724
(I1
(tg10
I00
S'c\xb7^\xe5\x08/*@'
tbsg11
F1
ssI352
(dp725
g5
g6
(g7
(I0
tS'b'
tRp726
(I1
(tg10
I00
S'O_\xbf\x90\xf8\xb5)@'
tbsg11
F1
ssI353
(dp727
g5
g6
(g7
(I0
tS'b'
tRp728
(I1
(tg10
I00
S'@\xd9\xbc\x19\xbeA-@'
tbsg11
F1
ssI354
(dp729
g5
g6
(g7
(I0
tS'b'
tRp730
(I1
(tg10
I00
S'wN\x13\x02V\n.@'
tbsg11
F1
ssI355
(dp731
g5
g6
(g7
(I0
tS'b'
tRp732
(I1
(tg10
I00
S'\x10\x12*\x00\x95g3@'
tbsg11
F1
ssI356
(dp733
g5
g6
(g7
(I0
tS'b'
tRp734
(I1
(tg10
I00
S"\x97\x90\x8cUV\xe2'@"
tbsg11
F1
ssI357
(dp735
g5
g6
(g7
(I0
tS'b'
tRp736
(I1
(tg10
I00
S'I\x9b\xb1\xf3A\x0c-@'
tbsg11
F1
ssI358
(dp737
g5
g6
(g7
(I0
tS'b'
tRp738
(I1
(tg10
I00
S'\x86`t\x12\xc5\xd2 @'
tbsg11
F1
ssI359
(dp739
g5
g6
(g7
(I0
tS'b'
tRp740
(I1
(tg10
I00
S'\x98\x1c\xf6\x8d\xe7/)@'
tbsg11
F1
ssI360
(dp741
g5
g6
(g7
(I0
tS'b'
tRp742
(I1
(tg10
I00
S'\xf4\xd8\x1fn\xb7\x155@'
tbsg11
F1
ssI361
(dp743
g5
g6
(g7
(I0
tS'b'
tRp744
(I1
(tg10
I00
S'G}\x0b\xc4oo8@'
tbsg11
F1
ssI362
(dp745
g5
g6
(g7
(I0
tS'b'
tRp746
(I1
(tg10
I00
S';p\x94\x90M\xe3(@'
tbsg11
F1
ssI363
(dp747
g5
g6
(g7
(I0
tS'b'
tRp748
(I1
(tg10
I00
S'\x10\x85\x1a@fV)@'
tbsg11
F1
ssI364
(dp749
g5
g6
(g7
(I0
tS'b'
tRp750
(I1
(tg10
I00
S'\xb5a\xcaP\xec\xa0+@'
tbsg11
F1
ssI365
(dp751
g5
g6
(g7
(I0
tS'b'
tRp752
(I1
(tg10
I00
S'\x1e48\xbd\xf9\xf0,@'
tbsg11
F1
ssI366
(dp753
g5
g6
(g7
(I0
tS'b'
tRp754
(I1
(tg10
I00
S'FD\xd8MI\r3@'
tbsg11
F1
ssI367
(dp755
g5
g6
(g7
(I0
tS'b'
tRp756
(I1
(tg10
I00
S'\x12\xd2v%\xd5\xe2&@'
tbsg11
F1
ssI368
(dp757
g5
g6
(g7
(I0
tS'b'
tRp758
(I1
(tg10
I00
S'\xe6\xbf&\xa7+\xd4-@'
tbsg11
F1
ssI369
(dp759
g5
g6
(g7
(I0
tS'b'
tRp760
(I1
(tg10
I00
S'l|\xebL\xa4- @'
tbsg11
F1
ssI370
(dp761
g5
g6
(g7
(I0
tS'b'
tRp762
(I1
(tg10
I00
S"\x00\x95\xa7\x8d\x97]'@"
tbsg11
F1
ssI371
(dp763
g5
g6
(g7
(I0
tS'b'
tRp764
(I1
(tg10
I00
S'\xc31\xa3(\x92\xe12@'
tbsg11
F1
ssI372
(dp765
g5
g6
(g7
(I0
tS'b'
tRp766
(I1
(tg10
I00
S'R\xb1r\\\x17\xa89@'
tbsg11
F1
ssI373
(dp767
g5
g6
(g7
(I0
tS'b'
tRp768
(I1
(tg10
I00
S"\xfe\x0f\x1e\xdc\x84]'@"
tbsg11
F1
ssI374
(dp769
g5
g6
(g7
(I0
tS'b'
tRp770
(I1
(tg10
I00
S'%\x87\xdb\xc1\xed\xa2)@'
tbsg11
F1
ssI375
(dp771
g5
g6
(g7
(I0
tS'b'
tRp772
(I1
(tg10
I00
S'N\xae$f\x04\\*@'
tbsg11
F1
ssI376
(dp773
g5
g6
(g7
(I0
tS'b'
tRp774
(I1
(tg10
I00
S'\xc0\xf9m\xdc\xbc\xae+@'
tbsg11
F1
ssI377
(dp775
g5
g6
(g7
(I0
tS'b'
tRp776
(I1
(tg10
I00
S'\xd6\xbc\x19#y\xad2@'
tbsg11
F1
ssI378
(dp777
g5
g6
(g7
(I0
tS'b'
tRp778
(I1
(tg10
I00
S'\x00.p\x0c\xae7&@'
tbsg11
F1
ssI379
(dp779
g5
g6
(g7
(I0
tS'b'
tRp780
(I1
(tg10
I00
S'\x92F\xf6\xdf$\xf1-@'
tbsg11
F1
ssI380
(dp781
g5
g6
(g7
(I0
tS'b'
tRp782
(I1
(tg10
I00
S'G\x16\xf1U\xa8\xa4\x1f@'
tbsg11
F1
ssI381
(dp783
g5
g6
(g7
(I0
tS'b'
tRp784
(I1
(tg10
I00
S'rO\xf0\xc8$T&@'
tbsg11
F1
ssI382
(dp785
g5
g6
(g7
(I0
tS'b'
tRp786
(I1
(tg10
I00
S'\n{m\x14uC1@'
tbsg11
F1
ssI383
(dp787
g5
g6
(g7
(I0
tS'b'
tRp788
(I1
(tg10
I00
S'\xf2\x10\x89%\xa9\xb79@'
tbsg11
F1
ssI384
(dp789
g5
g6
(g7
(I0
tS'b'
tRp790
(I1
(tg10
I00
S'\x04\xa3\xdb\x06\x10d&@'
tbsg11
F1
ssI385
(dp791
g5
g6
(g7
(I0
tS'b'
tRp792
(I1
(tg10
I00
S'w\xa0\x9cu\xe2\xb3)@'
tbsg11
F1
ssI386
(dp793
g5
g6
(g7
(I0
tS'b'
tRp794
(I1
(tg10
I00
S'\xab\x91<<\xc7\x90)@'
tbsg11
F1
ssI387
(dp795
g5
g6
(g7
(I0
tS'b'
tRp796
(I1
(tg10
I00
S'\xc1o\x8a\xf7\xde\x8d*@'
tbsg11
F1
ssI388
(dp797
g5
g6
(g7
(I0
tS'b'
tRp798
(I1
(tg10
I00
S'\xbcFjY\xab[2@'
tbsg11
F1
ssI389
(dp799
g5
g6
(g7
(I0
tS'b'
tRp800
(I1
(tg10
I00
S'\x1d\xa1\xf0\x8eE\xa7%@'
tbsg11
F1
ssI390
(dp801
g5
g6
(g7
(I0
tS'b'
tRp802
(I1
(tg10
I00
S'\xd3\xcd\x8et\xc3\xa7-@'
tbsg11
F1
ssI391
(dp803
g5
g6
(g7
(I0
tS'b'
tRp804
(I1
(tg10
I00
S'\x177\xb4+iJ\x1f@'
tbsg11
F1
ssI392
(dp805
g5
g6
(g7
(I0
tS'b'
tRp806
(I1
(tg10
I00
S'~^_1\x90h%@'
tbsg11
F1
ssI393
(dp807
g5
g6
(g7
(I0
tS'b'
tRp808
(I1
(tg10
I00
S'\x08\xf0^S\xc0k/@'
tbsg11
F1
ssI394
(dp809
g5
g6
(g7
(I0
tS'b'
tRp810
(I1
(tg10
I00
S'\xf0\xbe\x84,.\xea9@'
tbsg11
F1
ssI395
(dp811
g5
g6
(g7
(I0
tS'b'
tRp812
(I1
(tg10
I00
S'\x8cb\xd5\xd5\xb8\x8d%@'
tbsg11
F1
ssI396
(dp813
g5
g6
(g7
(I0
tS'b'
tRp814
(I1
(tg10
I00
S'\xae\x0e\xc7Ws\x11*@'
tbsg11
F1
ssI397
(dp815
g5
g6
(g7
(I0
tS'b'
tRp816
(I1
(tg10
I00
S'=O\xbc\x99F\xe2(@'
tbsg11
F1
ssI398
(dp817
g5
g6
(g7
(I0
tS'b'
tRp818
(I1
(tg10
I00
S'\xacD\xca\x1d\xd1\xaa)@'
tbsg11
F1
ssI399
(dp819
g5
g6
(g7
(I0
tS'b'
tRp820
(I1
(tg10
I00
S'\x01i\x17cJ\xf11@'
tbsg11
F1
ssI400
(dp821
g5
g6
(g7
(I0
tS'b'
tRp822
(I1
(tg10
I00
S'i\xbe\xb0\xf5W.%@'
tbss(dp823
S'status'
p824
(dp825
S'iterations_done'
p826
I400
sS'resumed_from'
p827
NsS'epoch_interrupt_received'
p828
I00
sS'received_first_batch'
p829
I01
sS'_epoch_ends'
p830
(lp831
I11
aI22
aI33
aI44
aI55
aI66
aI77
aI88
aI99
aI110
aI121
aI132
aI143
aI154
aI165
aI176
aI187
aI198
aI209
aI220
aI231
aI242
aI253
aI264
aI275
aI286
aI297
aI308
aI319
aI330
aI341
aI352
aI363
aI374
aI385
aI396
asS'epochs_done'
p832
I36
sS'epoch_started'
p833
I01
sS'batch_interrupt_received'
p834
I00
sS'training_started'
p835
I01
ssS'uuid'
p836
ccopy_reg
_reconstructor
p837
(cuuid
UUID
p838
c__builtin__
object
p839
NtRp840
(dp841
S'int'
p842
L317026615748695535623625184641635535493L
sbsb.