cblocks.log.log
TrainingLog
p1
(tRp2
I0
(dp3
sI1
(dp4
S'perplexity'
p5
cnumpy.core.multiarray
_reconstruct
p6
(cnumpy
ndarray
p7
(I0
tS'b'
tRp8
(I1
(tcnumpy
dtype
p9
(S'f8'
I0
I1
tRp10
(I3
S'<'
NNNI-1
I-1
I0
tbI00
S'y\xfa\xfe\xf7\xdd{\xd6@'
tbsS'learning_rate'
p11
F1
ssI2
(dp12
g5
g6
(g7
(I0
tS'b'
tRp13
(I1
(tg10
I00
S'\x97\xb9t\x81<o\xd6@'
tbsg11
F1
ssI3
(dp14
g5
g6
(g7
(I0
tS'b'
tRp15
(I1
(tg10
I00
S' \xfb\xf7\xdfi$\xd5@'
tbsg11
F1
ssI4
(dp16
g5
g6
(g7
(I0
tS'b'
tRp17
(I1
(tg10
I00
S'`_eUD\xab\xd7@'
tbsg11
F1
ssI5
(dp18
g5
g6
(g7
(I0
tS'b'
tRp19
(I1
(tg10
I00
S'F\x87\xa7C\x1dK\xd6@'
tbsg11
F1
ssI6
(dp20
g5
g6
(g7
(I0
tS'b'
tRp21
(I1
(tg10
I00
S'o[\x91S\xb4\xf1\xd4@'
tbsg11
F1
ssI7
(dp22
g5
g6
(g7
(I0
tS'b'
tRp23
(I1
(tg10
I00
S'\xd4\xec\xf4\x1c1\x19\xd6@'
tbsg11
F1
ssI8
(dp24
g5
g6
(g7
(I0
tS'b'
tRp25
(I1
(tg10
I00
S'&\xdet7\xdec\xd7@'
tbsg11
F1
ssI9
(dp26
g5
g6
(g7
(I0
tS'b'
tRp27
(I1
(tg10
I00
S'\x85s\x96\xcc\xe6\xd5\xd4@'
tbsg11
F1
ssI10
(dp28
g5
g6
(g7
(I0
tS'b'
tRp29
(I1
(tg10
I00
S"\xd6'[\x9d\x11\xdd\xd5@"
tbsg11
F1
ssI11
(dp30
g5
g6
(g7
(I0
tS'b'
tRp31
(I1
(tg10
I00
S'M\x0e@\x7f\xbc\x9d\xd4@'
tbsg11
F1
ssI12
(dp32
g5
g6
(g7
(I0
tS'b'
tRp33
(I1
(tg10
I00
S'\x16:\xff\n|\xab\xd5@'
tbsg11
F1
ssI13
(dp34
g5
g6
(g7
(I0
tS'b'
tRp35
(I1
(tg10
I00
S'\x04\x8fYvQ\x9a\xd5@'
tbsg11
F1
ssI14
(dp36
g5
g6
(g7
(I0
tS'b'
tRp37
(I1
(tg10
I00
S'\xac\xc94\xde6Q\xd4@'
tbsg11
F1
ssI15
(dp38
g5
g6
(g7
(I0
tS'b'
tRp39
(I1
(tg10
I00
S'\x84\xa1\x8a\x060\x99\xd6@'
tbsg11
F1
ssI16
(dp40
g5
g6
(g7
(I0
tS'b'
tRp41
(I1
(tg10
I00
S"\xf7e\x07D\xe4'\xd5@"
tbsg11
F1
ssI17
(dp42
g5
g6
(g7
(I0
tS'b'
tRp43
(I1
(tg10
I00
S'\x12\xbc\xbd\xf3\x8f\xa7\xd3@'
tbsg11
F1
ssI18
(dp44
g5
g6
(g7
(I0
tS'b'
tRp45
(I1
(tg10
I00
S'\x19\x97\xdc*\xcf\x8c\xd4@'
tbsg11
F1
ssI19
(dp46
g5
g6
(g7
(I0
tS'b'
tRp47
(I1
(tg10
I00
S'\xd6\x92\x9c3\xb7\x99\xd5@'
tbsg11
F1
ssI20
(dp48
g5
g6
(g7
(I0
tS'b'
tRp49
(I1
(tg10
I00
S'\xd8\xf5Ba\x87\xf3\xd2@'
tbsg11
F1
ssI21
(dp50
g5
g6
(g7
(I0
tS'b'
tRp51
(I1
(tg10
I00
S'\xb0\xbe\xe4\xec\xf9\x11\xd3@'
tbsg11
F1
ssI22
(dp52
g5
g6
(g7
(I0
tS'b'
tRp53
(I1
(tg10
I00
S'\x1f\xf6O\xca\x11#\xd1@'
tbsg11
F1
ssI23
(dp54
g5
g6
(g7
(I0
tS'b'
tRp55
(I1
(tg10
I00
S'Y\xb0z/\xc0\x0f\xd1@'
tbsg11
F1
ssI24
(dp56
g5
g6
(g7
(I0
tS'b'
tRp57
(I1
(tg10
I00
S'_\xd6\xa4B67\xce@'
tbsg11
F1
ssI25
(dp58
g5
g6
(g7
(I0
tS'b'
tRp59
(I1
(tg10
I00
S'\xb7\xf9\x04f4n\xc8@'
tbsg11
F1
ssI26
(dp60
g5
g6
(g7
(I0
tS'b'
tRp61
(I1
(tg10
I00
S'\n\xff\xeb\xbdOV\xc3@'
tbsg11
F1
ssI27
(dp62
g5
g6
(g7
(I0
tS'b'
tRp63
(I1
(tg10
I00
S'\xd33\xfa\xf7\xc5\x0b\xb4@'
tbsg11
F1
ssI28
(dp64
g5
g6
(g7
(I0
tS'b'
tRp65
(I1
(tg10
I00
S'\xc6\x82\xaeA1\xc8\xa0@'
tbsg11
F1
ssI29
(dp66
g5
g6
(g7
(I0
tS'b'
tRp67
(I1
(tg10
I00
S'\xafef\x97\x0c(\xa3@'
tbsg11
F1
ssI30
(dp68
g5
g6
(g7
(I0
tS'b'
tRp69
(I1
(tg10
I00
S'\xdb\xddx&XZ\xa7@'
tbsg11
F1
ssI31
(dp70
g5
g6
(g7
(I0
tS'b'
tRp71
(I1
(tg10
I00
S'\xa1?\xa9\xf8E\x05\xa3@'
tbsg11
F1
ssI32
(dp72
g5
g6
(g7
(I0
tS'b'
tRp73
(I1
(tg10
I00
S"\x0c\xf6\xc5'\x00]\xa0@"
tbsg11
F1
ssI33
(dp74
g5
g6
(g7
(I0
tS'b'
tRp75
(I1
(tg10
I00
S'r\x06\xe2w\x06\xea\x95@'
tbsg11
F1
ssI34
(dp76
g5
g6
(g7
(I0
tS'b'
tRp77
(I1
(tg10
I00
S'\xe9\x1cA\xeeKG\xa0@'
tbsg11
F1
ssI35
(dp78
g5
g6
(g7
(I0
tS'b'
tRp79
(I1
(tg10
I00
S'\xecu\xd4\xb9p\xff\x9e@'
tbsg11
F1
ssI36
(dp80
g5
g6
(g7
(I0
tS'b'
tRp81
(I1
(tg10
I00
S'OX\xe1tN\x84\xa1@'
tbsg11
F1
ssI37
(dp82
g5
g6
(g7
(I0
tS'b'
tRp83
(I1
(tg10
I00
S'\xbb\xd2B\xac\xf1l\xa2@'
tbsg11
F1
ssI38
(dp84
g5
g6
(g7
(I0
tS'b'
tRp85
(I1
(tg10
I00
S'p\xb6\x8e\xa9`z\x99@'
tbsg11
F1
ssI39
(dp86
g5
g6
(g7
(I0
tS'b'
tRp87
(I1
(tg10
I00
S'\xee\x9f\xddc\x8b\xb2\x91@'
tbsg11
F1
ssI40
(dp88
g5
g6
(g7
(I0
tS'b'
tRp89
(I1
(tg10
I00
S'\xcf\xbdg\xb7\xfa\t\x94@'
tbsg11
F1
ssI41
(dp90
g5
g6
(g7
(I0
tS'b'
tRp91
(I1
(tg10
I00
S'\x96FQ9f7\xa6@'
tbsg11
F1
ssI42
(dp92
g5
g6
(g7
(I0
tS'b'
tRp93
(I1
(tg10
I00
S'-\xe4\xff\xc2\xcb\x14\xa0@'
tbsg11
F1
ssI43
(dp94
g5
g6
(g7
(I0
tS'b'
tRp95
(I1
(tg10
I00
S'h\n\x8b\x1c_\x90\x8f@'
tbsg11
F1
ssI44
(dp96
g5
g6
(g7
(I0
tS'b'
tRp97
(I1
(tg10
I00
S'\xed\xfb_\x17\x0b\xaa\x80@'
tbsg11
F1
ssI45
(dp98
g5
g6
(g7
(I0
tS'b'
tRp99
(I1
(tg10
I00
S'X\xb3\xd4`\xf5<\x9c@'
tbsg11
F1
ssI46
(dp100
g5
g6
(g7
(I0
tS'b'
tRp101
(I1
(tg10
I00
S'\xacG\xbc\xa7\xdc\x19\x90@'
tbsg11
F1
ssI47
(dp102
g5
g6
(g7
(I0
tS'b'
tRp103
(I1
(tg10
I00
S'V\xa76\xa9G\xe6\x9e@'
tbsg11
F1
ssI48
(dp104
g5
g6
(g7
(I0
tS'b'
tRp105
(I1
(tg10
I00
S'\xadT{\x8cY|\x9b@'
tbsg11
F1
ssI49
(dp106
g5
g6
(g7
(I0
tS'b'
tRp107
(I1
(tg10
I00
S'\xd9\x11-\xe9wP\x91@'
tbsg11
F1
ssI50
(dp108
g5
g6
(g7
(I0
tS'b'
tRp109
(I1
(tg10
I00
S'\xb7\x00\xec\x89\xa0\x04\x85@'
tbsg11
F1
ssI51
(dp110
g5
g6
(g7
(I0
tS'b'
tRp111
(I1
(tg10
I00
S'\x92\xce\xe5\x04\xa3\x97\x8f@'
tbsg11
F1
ssI52
(dp112
g5
g6
(g7
(I0
tS'b'
tRp113
(I1
(tg10
I00
S'\x13\xae\xc8Fa\xce\xa0@'
tbsg11
F1
ssI53
(dp114
g5
g6
(g7
(I0
tS'b'
tRp115
(I1
(tg10
I00
S'^\xfb\x07\xb1]>\x95@'
tbsg11
F1
ssI54
(dp116
g5
g6
(g7
(I0
tS'b'
tRp117
(I1
(tg10
I00
S'\x8fd\xb2\xa3\xba\x8a\x86@'
tbsg11
F1
ssI55
(dp118
g5
g6
(g7
(I0
tS'b'
tRp119
(I1
(tg10
I00
S'\x91\xa3\xc1RK\xb4v@'
tbsg11
F1
ssI56
(dp120
g5
g6
(g7
(I0
tS'b'
tRp121
(I1
(tg10
I00
S'J\x07LK\x80A\x90@'
tbsg11
F1
ssI57
(dp122
g5
g6
(g7
(I0
tS'b'
tRp123
(I1
(tg10
I00
S'\x9d\x084\xd9\xd3\xf0\x84@'
tbsg11
F1
ssI58
(dp124
g5
g6
(g7
(I0
tS'b'
tRp125
(I1
(tg10
I00
S'O\xff\x0f\x08\xa33\x8d@'
tbsg11
F1
ssI59
(dp126
g5
g6
(g7
(I0
tS'b'
tRp127
(I1
(tg10
I00
S's\r\xe4\xc9\xb7\x9a\x84@'
tbsg11
F1
ssI60
(dp128
g5
g6
(g7
(I0
tS'b'
tRp129
(I1
(tg10
I00
S'\xb3by\x94\xb7\xa4s@'
tbsg11
F1
ssI61
(dp130
g5
g6
(g7
(I0
tS'b'
tRp131
(I1
(tg10
I00
S'\xcb\xdd\xbe\x889Am@'
tbsg11
F1
ssI62
(dp132
g5
g6
(g7
(I0
tS'b'
tRp133
(I1
(tg10
I00
S'\xe9\xe9\xcb>\xc6\x87p@'
tbsg11
F1
ssI63
(dp134
g5
g6
(g7
(I0
tS'b'
tRp135
(I1
(tg10
I00
S'k\xbb!`\xed\x16s@'
tbsg11
F1
ssI64
(dp136
g5
g6
(g7
(I0
tS'b'
tRp137
(I1
(tg10
I00
S'\x11\xcd\x1d\xa1<@|@'
tbsg11
F1
ssI65
(dp138
g5
g6
(g7
(I0
tS'b'
tRp139
(I1
(tg10
I00
S'\x8a\xc7\x8c\x9a\x00\xc0P@'
tbsg11
F1
ssI66
(dp140
g5
g6
(g7
(I0
tS'b'
tRp141
(I1
(tg10
I00
S'\xb8\r\xe5|\x93\x1f\xa2@'
tbsg11
F1
ssI67
(dp142
g5
g6
(g7
(I0
tS'b'
tRp143
(I1
(tg10
I00
S'\xe5l\xef\xdfd\xb7^@'
tbsg11
F1
ssI68
(dp144
g5
g6
(g7
(I0
tS'b'
tRp145
(I1
(tg10
I00
S'\xe3\x1e\xbeI\xee\xaf\x8d@'
tbsg11
F1
ssI69
(dp146
g5
g6
(g7
(I0
tS'b'
tRp147
(I1
(tg10
I00
S'q0\x1b\x8e\x19\xb1c@'
tbsg11
F1
ssI70
(dp148
g5
g6
(g7
(I0
tS'b'
tRp149
(I1
(tg10
I00
S'\xb2\x191\xa8kw`@'
tbsg11
F1
ssI71
(dp150
g5
g6
(g7
(I0
tS'b'
tRp151
(I1
(tg10
I00
S'.E\x9d*M\xeb]@'
tbsg11
F1
ssI72
(dp152
g5
g6
(g7
(I0
tS'b'
tRp153
(I1
(tg10
I00
S'\t\x030\xcbx#X@'
tbsg11
F1
ssI73
(dp154
g5
g6
(g7
(I0
tS'b'
tRp155
(I1
(tg10
I00
S'\x19\xd0\xa4J\x98\xb0S@'
tbsg11
F1
ssI74
(dp156
g5
g6
(g7
(I0
tS'b'
tRp157
(I1
(tg10
I00
S'!i\x87LUVX@'
tbsg11
F1
ssI75
(dp158
g5
g6
(g7
(I0
tS'b'
tRp159
(I1
(tg10
I00
S':EF\x9bj\xa6^@'
tbsg11
F1
ssI76
(dp160
g5
g6
(g7
(I0
tS'b'
tRp161
(I1
(tg10
I00
S'P\xec\xaa=\x17\xb7D@'
tbsg11
F1
ssI77
(dp162
g5
g6
(g7
(I0
tS'b'
tRp163
(I1
(tg10
I00
S'\x9a\xed\x8d\xd1\x18\xd1^@'
tbsg11
F1
ssI78
(dp164
g5
g6
(g7
(I0
tS'b'
tRp165
(I1
(tg10
I00
S'\x18\x90\x9b\x1f\x89\x01P@'
tbsg11
F1
ssI79
(dp166
g5
g6
(g7
(I0
tS'b'
tRp167
(I1
(tg10
I00
S'\xbf\x1b\xd9P\xa9\xdaK@'
tbsg11
F1
ssI80
(dp168
g5
g6
(g7
(I0
tS'b'
tRp169
(I1
(tg10
I00
S'J\xc7\xf4\xdb\xdf\x03T@'
tbsg11
F1
ssI81
(dp170
g5
g6
(g7
(I0
tS'b'
tRp171
(I1
(tg10
I00
S'S\xf1iY\xf7R;@'
tbsg11
F1
ssI82
(dp172
g5
g6
(g7
(I0
tS'b'
tRp173
(I1
(tg10
I00
S'_\xef2<\xcd\xaeB@'
tbsg11
F1
ssI83
(dp174
g5
g6
(g7
(I0
tS'b'
tRp175
(I1
(tg10
I00
S'\xb8c\xfd\x7f\xa8Y<@'
tbsg11
F1
ssI84
(dp176
g5
g6
(g7
(I0
tS'b'
tRp177
(I1
(tg10
I00
S'\x99\x8b\xcdh\x8c_<@'
tbsg11
F1
ssI85
(dp178
g5
g6
(g7
(I0
tS'b'
tRp179
(I1
(tg10
I00
S"\xcd\xc2V\xd1''C@"
tbsg11
F1
ssI86
(dp180
g5
g6
(g7
(I0
tS'b'
tRp181
(I1
(tg10
I00
S'K\xe2\x9f\xcb"\xfa\\@'
tbsg11
F1
ssI87
(dp182
g5
g6
(g7
(I0
tS'b'
tRp183
(I1
(tg10
I00
S'\xb4\xb8\x0e\x07Z :@'
tbsg11
F1
ssI88
(dp184
g5
g6
(g7
(I0
tS'b'
tRp185
(I1
(tg10
I00
S'\x90:=\xf2?\xe9J@'
tbsg11
F1
ssI89
(dp186
g5
g6
(g7
(I0
tS'b'
tRp187
(I1
(tg10
I00
S'\xdd\xa1.\x8c\xa1\xfcB@'
tbsg11
F1
ssI90
(dp188
g5
g6
(g7
(I0
tS'b'
tRp189
(I1
(tg10
I00
S'1\xe2\xb5\xfc\x95\x93;@'
tbsg11
F1
ssI91
(dp190
g5
g6
(g7
(I0
tS'b'
tRp191
(I1
(tg10
I00
S'\xed\xf3\xb9j\x0f\x11J@'
tbsg11
F1
ssI92
(dp192
g5
g6
(g7
(I0
tS'b'
tRp193
(I1
(tg10
I00
S'\xb4\xb1p\xc3\xe2\x0f8@'
tbsg11
F1
ssI93
(dp194
g5
g6
(g7
(I0
tS'b'
tRp195
(I1
(tg10
I00
S'\xde\xdfB\xf5\x9dm7@'
tbsg11
F1
ssI94
(dp196
g5
g6
(g7
(I0
tS'b'
tRp197
(I1
(tg10
I00
S'\x9b\xcc\x9f\x9f\xbe\xfc5@'
tbsg11
F1
ssI95
(dp198
g5
g6
(g7
(I0
tS'b'
tRp199
(I1
(tg10
I00
S'\x0e\x98\xea\x167\x8d:@'
tbsg11
F1
ssI96
(dp200
g5
g6
(g7
(I0
tS'b'
tRp201
(I1
(tg10
I00
S'\xde\x9c<\xf5\xfe\xb17@'
tbsg11
F1
ssI97
(dp202
g5
g6
(g7
(I0
tS'b'
tRp203
(I1
(tg10
I00
S'wyA *\xf2@@'
tbsg11
F1
ssI98
(dp204
g5
g6
(g7
(I0
tS'b'
tRp205
(I1
(tg10
I00
S'\xd4\x89$!\xb0\x1f5@'
tbsg11
F1
ssI99
(dp206
g5
g6
(g7
(I0
tS'b'
tRp207
(I1
(tg10
I00
S'\xb8oyO\xa2\x9b@@'
tbsg11
F1
ssI100
(dp208
g5
g6
(g7
(I0
tS'b'
tRp209
(I1
(tg10
I00
S'\xde\x06\xd8i\x8c\xe9A@'
tbsg11
F1
sS'saved_to'
p210
(lp211
S'D:\\users\\chxing\\aaai2017Exp\\JPdata\\r50maxcount.q1min10max.2-20.1-20\\s2sa_topicAwareGeneration\\/params.npz.100'
p212
aS'D:\\users\\chxing\\aaai2017Exp\\JPdata\\r50maxcount.q1min10max.2-20.1-20\\s2sa_topicAwareGeneration\\/iterations_state.pkl.100'
p213
aS'D:\\users\\chxing\\aaai2017Exp\\JPdata\\r50maxcount.q1min10max.2-20.1-20\\s2sa_topicAwareGeneration\\/log.100'
p214
assI101
(dp215
g5
g6
(g7
(I0
tS'b'
tRp216
(I1
(tg10
I00
S'\xa0T\x11\x1c-\xcb:@'
tbsg11
F1
ssI102
(dp217
g5
g6
(g7
(I0
tS'b'
tRp218
(I1
(tg10
I00
S'\x0c\x92y\x8e\x82[C@'
tbsg11
F1
ssI103
(dp219
g5
g6
(g7
(I0
tS'b'
tRp220
(I1
(tg10
I00
S'\xc6=\xda\xca\x1dV3@'
tbsg11
F1
ssI104
(dp221
g5
g6
(g7
(I0
tS'b'
tRp222
(I1
(tg10
I00
S',\x8b\x940"i5@'
tbsg11
F1
ssI105
(dp223
g5
g6
(g7
(I0
tS'b'
tRp224
(I1
(tg10
I00
S'\xcc\x81\x80\x18\xd4\xbc2@'
tbsg11
F1
ssI106
(dp225
g5
g6
(g7
(I0
tS'b'
tRp226
(I1
(tg10
I00
S'$7\xf9\xca\x15\xcd6@'
tbsg11
F1
ssI107
(dp227
g5
g6
(g7
(I0
tS'b'
tRp228
(I1
(tg10
I00
S'\x88\x8c3\x1a\x06p5@'
tbsg11
F1
ssI108
(dp229
g5
g6
(g7
(I0
tS'b'
tRp230
(I1
(tg10
I00
S'gW\x0b\x99\xca\xb79@'
tbsg11
F1
ssI109
(dp231
g5
g6
(g7
(I0
tS'b'
tRp232
(I1
(tg10
I00
S'\x17\xd0\xf3\xedI\x7f6@'
tbsg11
F1
ssI110
(dp233
g5
g6
(g7
(I0
tS'b'
tRp234
(I1
(tg10
I00
S'g\xdf\xa5\\n\x8b8@'
tbsg11
F1
ssI111
(dp235
g5
g6
(g7
(I0
tS'b'
tRp236
(I1
(tg10
I00
S'L\xf8\xcf\x8f\x96t?@'
tbsg11
F1
ssI112
(dp237
g5
g6
(g7
(I0
tS'b'
tRp238
(I1
(tg10
I00
S'Z\xe4\t\xbd\x02n;@'
tbsg11
F1
ssI113
(dp239
g5
g6
(g7
(I0
tS'b'
tRp240
(I1
(tg10
I00
S'\xdb\xe0\xbf\xc8\xb7\xba@@'
tbsg11
F1
ssI114
(dp241
g5
g6
(g7
(I0
tS'b'
tRp242
(I1
(tg10
I00
S'6\x960["\xca1@'
tbsg11
F1
ssI115
(dp243
g5
g6
(g7
(I0
tS'b'
tRp244
(I1
(tg10
I00
S'\x82C\x14\xb1\xc7Z4@'
tbsg11
F1
ssI116
(dp245
g5
g6
(g7
(I0
tS'b'
tRp246
(I1
(tg10
I00
S'\x16WD\xb4\xd3\xfa0@'
tbsg11
F1
ssI117
(dp247
g5
g6
(g7
(I0
tS'b'
tRp248
(I1
(tg10
I00
S'\x04P\xc4"\xb8\xca5@'
tbsg11
F1
ssI118
(dp249
g5
g6
(g7
(I0
tS'b'
tRp250
(I1
(tg10
I00
S'\x85\xad\x98a\x11\x8f4@'
tbsg11
F1
ssI119
(dp251
g5
g6
(g7
(I0
tS'b'
tRp252
(I1
(tg10
I00
S'9\xea\xdcy\x86\xd16@'
tbsg11
F1
ssI120
(dp253
g5
g6
(g7
(I0
tS'b'
tRp254
(I1
(tg10
I00
S'\xe9\x06\xadD\xff\xa45@'
tbsg11
F1
ssI121
(dp255
g5
g6
(g7
(I0
tS'b'
tRp256
(I1
(tg10
I00
S'\x83{\xaeE\t"6@'
tbsg11
F1
ssI122
(dp257
g5
g6
(g7
(I0
tS'b'
tRp258
(I1
(tg10
I00
S'N18\xa4\x8f&>@'
tbsg11
F1
ssI123
(dp259
g5
g6
(g7
(I0
tS'b'
tRp260
(I1
(tg10
I00
S'(\x9fI\xf3\xf2\x82;@'
tbsg11
F1
ssI124
(dp261
g5
g6
(g7
(I0
tS'b'
tRp262
(I1
(tg10
I00
S'\x977\x02\xcc\x0c_>@'
tbsg11
F1
ssI125
(dp263
g5
g6
(g7
(I0
tS'b'
tRp264
(I1
(tg10
I00
S'\xe0\x04\xe2\x98\xc6\xce0@'
tbsg11
F1
ssI126
(dp265
g5
g6
(g7
(I0
tS'b'
tRp266
(I1
(tg10
I00
S'\xbb\xb1m\x1b^\x8d3@'
tbsg11
F1
ssI127
(dp267
g5
g6
(g7
(I0
tS'b'
tRp268
(I1
(tg10
I00
S'\x01O\xa5U1\x060@'
tbsg11
F1
ssI128
(dp269
g5
g6
(g7
(I0
tS'b'
tRp270
(I1
(tg10
I00
S'\xf6\xe9*\xc3\xb6z4@'
tbsg11
F1
ssI129
(dp271
g5
g6
(g7
(I0
tS'b'
tRp272
(I1
(tg10
I00
S'\xe3(.\xca\x9b)3@'
tbsg11
F1
ssI130
(dp273
g5
g6
(g7
(I0
tS'b'
tRp274
(I1
(tg10
I00
S'\xec\x18A,\xf6\xb05@'
tbsg11
F1
ssI131
(dp275
g5
g6
(g7
(I0
tS'b'
tRp276
(I1
(tg10
I00
S'\x08\xd80\xb3\xe3\xd13@'
tbsg11
F1
ssI132
(dp277
g5
g6
(g7
(I0
tS'b'
tRp278
(I1
(tg10
I00
S'\xd3@h!\xfd\xdc:@'
tbsg11
F1
ssI133
(dp279
g5
g6
(g7
(I0
tS'b'
tRp280
(I1
(tg10
I00
S'\xf4\xa7\x1c\xc0W\xc3>@'
tbsg11
F1
ssI134
(dp281
g5
g6
(g7
(I0
tS'b'
tRp282
(I1
(tg10
I00
S'_\xac\xfd\x1be\xa57@'
tbsg11
F1
ssI135
(dp283
g5
g6
(g7
(I0
tS'b'
tRp284
(I1
(tg10
I00
S'-\xb95(\xeb\x9f<@'
tbsg11
F1
ssI136
(dp285
g5
g6
(g7
(I0
tS'b'
tRp286
(I1
(tg10
I00
S'\xa7$\xcf?\x97\xa1/@'
tbsg11
F1
ssI137
(dp287
g5
g6
(g7
(I0
tS'b'
tRp288
(I1
(tg10
I00
S'\xf2\xc2\xbe,\xb2\x953@'
tbsg11
F1
ssI138
(dp289
g5
g6
(g7
(I0
tS'b'
tRp290
(I1
(tg10
I00
S'\x8eJ\xd9\xec\x8a\xef/@'
tbsg11
F1
ssI139
(dp291
g5
g6
(g7
(I0
tS'b'
tRp292
(I1
(tg10
I00
S'X9\r\x13\x1cE3@'
tbsg11
F1
ssI140
(dp293
g5
g6
(g7
(I0
tS'b'
tRp294
(I1
(tg10
I00
S'_\x9e3+\xca\x9e3@'
tbsg11
F1
ssI141
(dp295
g5
g6
(g7
(I0
tS'b'
tRp296
(I1
(tg10
I00
S'\x11\xeb\t\xaf\x81\x8eN@'
tbsg11
F1
ssI142
(dp297
g5
g6
(g7
(I0
tS'b'
tRp298
(I1
(tg10
I00
S'\x9f\x0b\xe1\x00\x06M3@'
tbsg11
F1
ssI143
(dp299
g5
g6
(g7
(I0
tS'b'
tRp300
(I1
(tg10
I00
S'u&\x95\xaftQ<@'
tbsg11
F1
ssI144
(dp301
g5
g6
(g7
(I0
tS'b'
tRp302
(I1
(tg10
I00
S'K\xf0\x83L\x1b\xc2:@'
tbsg11
F1
ssI145
(dp303
g5
g6
(g7
(I0
tS'b'
tRp304
(I1
(tg10
I00
S'2\xf7\xae\x1e\xc1\xa33@'
tbsg11
F1
ssI146
(dp305
g5
g6
(g7
(I0
tS'b'
tRp306
(I1
(tg10
I00
S'\x16\x14\xc6\xd2\xd3\xc4<@'
tbsg11
F1
ssI147
(dp307
g5
g6
(g7
(I0
tS'b'
tRp308
(I1
(tg10
I00
S'pe"B\xd4\xfa1@'
tbsg11
F1
ssI148
(dp309
g5
g6
(g7
(I0
tS'b'
tRp310
(I1
(tg10
I00
S'\x9f/\xa5\xb1\xe9}1@'
tbsg11
F1
ssI149
(dp311
g5
g6
(g7
(I0
tS'b'
tRp312
(I1
(tg10
I00
S'\xfe\xe1`\xf2v\xc2.@'
tbsg11
F1
ssI150
(dp313
g5
g6
(g7
(I0
tS'b'
tRp314
(I1
(tg10
I00
S'b\x8af\rn\x8e2@'
tbsg11
F1
ssI151
(dp315
g5
g6
(g7
(I0
tS'b'
tRp316
(I1
(tg10
I00
S'\x97%FN\xa9\xce1@'
tbsg11
F1
ssI152
(dp317
g5
g6
(g7
(I0
tS'b'
tRp318
(I1
(tg10
I00
S'\xb3\xec\xd5\x0bKJ5@'
tbsg11
F1
ssI153
(dp319
g5
g6
(g7
(I0
tS'b'
tRp320
(I1
(tg10
I00
S'\\"\xf3\xec\xc0\x122@'
tbsg11
F1
ssI154
(dp321
g5
g6
(g7
(I0
tS'b'
tRp322
(I1
(tg10
I00
S'\xcf7\xb0\x1cwF5@'
tbsg11
F1
ssI155
(dp323
g5
g6
(g7
(I0
tS'b'
tRp324
(I1
(tg10
I00
S'\xaf\xfc\xa7\x12\x14]<@'
tbsg11
F1
ssI156
(dp325
g5
g6
(g7
(I0
tS'b'
tRp326
(I1
(tg10
I00
S'J\xae\xc3\xf9\xff\xc97@'
tbsg11
F1
ssI157
(dp327
g5
g6
(g7
(I0
tS'b'
tRp328
(I1
(tg10
I00
S'\x9d\xd5\x16\x9dTt9@'
tbsg11
F1
ssI158
(dp329
g5
g6
(g7
(I0
tS'b'
tRp330
(I1
(tg10
I00
S' \xff\xe2\xc7\xa46.@'
tbsg11
F1
ssI159
(dp331
g5
g6
(g7
(I0
tS'b'
tRp332
(I1
(tg10
I00
S'm\xb8\xd4\xe9\xefC2@'
tbsg11
F1
ssI160
(dp333
g5
g6
(g7
(I0
tS'b'
tRp334
(I1
(tg10
I00
S'\x91\xed\x90\xc2\x99\x82.@'
tbsg11
F1
ssI161
(dp335
g5
g6
(g7
(I0
tS'b'
tRp336
(I1
(tg10
I00
S'\xeb\x8fo\x96\x1dt5@'
tbsg11
F1
ssI162
(dp337
g5
g6
(g7
(I0
tS'b'
tRp338
(I1
(tg10
I00
S'\xfe\xcd!C\xb0\x82@@'
tbsg11
F1
ssI163
(dp339
g5
g6
(g7
(I0
tS'b'
tRp340
(I1
(tg10
I00
S'UUU\x85\x89\x91>@'
tbsg11
F1
ssI164
(dp341
g5
g6
(g7
(I0
tS'b'
tRp342
(I1
(tg10
I00
S"\r'\xc1\xba\x88`5@"
tbsg11
F1
ssI165
(dp343
g5
g6
(g7
(I0
tS'b'
tRp344
(I1
(tg10
I00
S'\x1aH\xe7A\xc7\xdf1@'
tbsg11
F1
ssI166
(dp345
g5
g6
(g7
(I0
tS'b'
tRp346
(I1
(tg10
I00
S'\xc1\x17EJk[:@'
tbsg11
F1
ssI167
(dp347
g5
g6
(g7
(I0
tS'b'
tRp348
(I1
(tg10
I00
S'=\xf4\x86phi7@'
tbsg11
F1
ssI168
(dp349
g5
g6
(g7
(I0
tS'b'
tRp350
(I1
(tg10
I00
S'\xfb\x8dyG\xb5\x8b9@'
tbsg11
F1
ssI169
(dp351
g5
g6
(g7
(I0
tS'b'
tRp352
(I1
(tg10
I00
S'\xd8g\nd?\xa5/@'
tbsg11
F1
ssI170
(dp353
g5
g6
(g7
(I0
tS'b'
tRp354
(I1
(tg10
I00
S'\xca\x0e\xe2nT\xf40@'
tbsg11
F1
ssI171
(dp355
g5
g6
(g7
(I0
tS'b'
tRp356
(I1
(tg10
I00
S'\r\x07\x98Jg\xa2,@'
tbsg11
F1
ssI172
(dp357
g5
g6
(g7
(I0
tS'b'
tRp358
(I1
(tg10
I00
S'o\x93G_\x80\xe52@'
tbsg11
F1
ssI173
(dp359
g5
g6
(g7
(I0
tS'b'
tRp360
(I1
(tg10
I00
S'\x7f\xeb\xe1\xba\xc4\xde:@'
tbsg11
F1
ssI174
(dp361
g5
g6
(g7
(I0
tS'b'
tRp362
(I1
(tg10
I00
S'\xde\xf4\x98\x83ikD@'
tbsg11
F1
ssI175
(dp363
g5
g6
(g7
(I0
tS'b'
tRp364
(I1
(tg10
I00
S'\xdcc\x1e\x19L\xec2@'
tbsg11
F1
ssI176
(dp365
g5
g6
(g7
(I0
tS'b'
tRp366
(I1
(tg10
I00
S'\xf9e8\t<V1@'
tbsg11
F1
ssI177
(dp367
g5
g6
(g7
(I0
tS'b'
tRp368
(I1
(tg10
I00
S'\x93jo\xaa\x1f\x1d9@'
tbsg11
F1
ssI178
(dp369
g5
g6
(g7
(I0
tS'b'
tRp370
(I1
(tg10
I00
S'\xfc\x1eE\xc2\x8f\xc65@'
tbsg11
F1
ssI179
(dp371
g5
g6
(g7
(I0
tS'b'
tRp372
(I1
(tg10
I00
S'\xb28\xb2\xdbK19@'
tbsg11
F1
ssI180
(dp373
g5
g6
(g7
(I0
tS'b'
tRp374
(I1
(tg10
I00
S'\x81\xa9\x82\xc7\x1eZ0@'
tbsg11
F1
ssI181
(dp375
g5
g6
(g7
(I0
tS'b'
tRp376
(I1
(tg10
I00
S'\xd3D\x85?\xd0G0@'
tbsg11
F1
ssI182
(dp377
g5
g6
(g7
(I0
tS'b'
tRp378
(I1
(tg10
I00
S'\x11\xac\xb0\xd55\xd7+@'
tbsg11
F1
ssI183
(dp379
g5
g6
(g7
(I0
tS'b'
tRp380
(I1
(tg10
I00
S'\x92K|\x05\x1d\x962@'
tbsg11
F1
ssI184
(dp381
g5
g6
(g7
(I0
tS'b'
tRp382
(I1
(tg10
I00
S'\\P\xfe\xcbY\xd7;@'
tbsg11
F1
ssI185
(dp383
g5
g6
(g7
(I0
tS'b'
tRp384
(I1
(tg10
I00
S':\xbd\xe90\xdd\x83B@'
tbsg11
F1
ssI186
(dp385
g5
g6
(g7
(I0
tS'b'
tRp386
(I1
(tg10
I00
S'nc\xda\tv\xfe2@'
tbsg11
F1
ssI187
(dp387
g5
g6
(g7
(I0
tS'b'
tRp388
(I1
(tg10
I00
S'\xb4\xe9\x08\xc5C\x9a0@'
tbsg11
F1
ssI188
(dp389
g5
g6
(g7
(I0
tS'b'
tRp390
(I1
(tg10
I00
S'\xd1\xc0[\xae\x10\x8b8@'
tbsg11
F1
ssI189
(dp391
g5
g6
(g7
(I0
tS'b'
tRp392
(I1
(tg10
I00
S'\x1c\xabt\xf3\x97\xdd5@'
tbsg11
F1
ssI190
(dp393
g5
g6
(g7
(I0
tS'b'
tRp394
(I1
(tg10
I00
S'\xa3\x9b\xf1\t\x9ar8@'
tbsg11
F1
ssI191
(dp395
g5
g6
(g7
(I0
tS'b'
tRp396
(I1
(tg10
I00
S'\xfaj\x1er\r\x050@'
tbsg11
F1
ssI192
(dp397
g5
g6
(g7
(I0
tS'b'
tRp398
(I1
(tg10
I00
S'E\x8am\xf9\x84\x070@'
tbsg11
F1
ssI193
(dp399
g5
g6
(g7
(I0
tS'b'
tRp400
(I1
(tg10
I00
S'JcI}u$+@'
tbsg11
F1
ssI194
(dp401
g5
g6
(g7
(I0
tS'b'
tRp402
(I1
(tg10
I00
S'\x0c\xaf\xadj\x86\x912@'
tbsg11
F1
ssI195
(dp403
g5
g6
(g7
(I0
tS'b'
tRp404
(I1
(tg10
I00
S'\x1a\x14\xbe\x9b\\\xc1<@'
tbsg11
F1
ssI196
(dp405
g5
g6
(g7
(I0
tS'b'
tRp406
(I1
(tg10
I00
S'\xceP\x19\xadc\xf1@@'
tbsg11
F1
ssI197
(dp407
g5
g6
(g7
(I0
tS'b'
tRp408
(I1
(tg10
I00
S'R\xd0\xf7\x93H\xf52@'
tbsg11
F1
ssI198
(dp409
g5
g6
(g7
(I0
tS'b'
tRp410
(I1
(tg10
I00
S'\xe0X\x0c\x84\xcd70@'
tbsg11
F1
ssI199
(dp411
g5
g6
(g7
(I0
tS'b'
tRp412
(I1
(tg10
I00
S'Xp\x92[\xde$8@'
tbsg11
F1
ssI200
(dp413
g5
g6
(g7
(I0
tS'b'
tRp414
(I1
(tg10
I00
S"]\xfch'\xab\xef5@"
tbsg11
F1
sg210
(lp415
S'D:\\users\\chxing\\aaai2017Exp\\JPdata\\r50maxcount.q1min10max.2-20.1-20\\s2sa_topicAwareGeneration\\/params.npz.200'
p416
aS'D:\\users\\chxing\\aaai2017Exp\\JPdata\\r50maxcount.q1min10max.2-20.1-20\\s2sa_topicAwareGeneration\\/iterations_state.pkl.200'
p417
aS'D:\\users\\chxing\\aaai2017Exp\\JPdata\\r50maxcount.q1min10max.2-20.1-20\\s2sa_topicAwareGeneration\\/log.200'
p418
assI201
(dp419
g5
g6
(g7
(I0
tS'b'
tRp420
(I1
(tg10
I00
S'R\xbb\xc9\xa8L\xaf7@'
tbsg11
F1
ssI202
(dp421
g5
g6
(g7
(I0
tS'b'
tRp422
(I1
(tg10
I00
S'\xb5\x92T\x88rG/@'
tbsg11
F1
ssI203
(dp423
g5
g6
(g7
(I0
tS'b'
tRp424
(I1
(tg10
I00
S'K\x9a\x01\xce\xbb\xbd/@'
tbsg11
F1
ssI204
(dp425
g5
g6
(g7
(I0
tS'b'
tRp426
(I1
(tg10
I00
S'\x8f]\xd4\x07\x14\xa0*@'
tbsg11
F1
ssI205
(dp427
g5
g6
(g7
(I0
tS'b'
tRp428
(I1
(tg10
I00
S'`\x15.\x0f\xe1r2@'
tbsg11
F1
ssI206
(dp429
g5
g6
(g7
(I0
tS'b'
tRp430
(I1
(tg10
I00
S'\xcf\x05\x88\xaa\x8c\xc5<@'
tbsg11
F1
ssI207
(dp431
g5
g6
(g7
(I0
tS'b'
tRp432
(I1
(tg10
I00
S'BI\xac\x11x&@@'
tbsg11
F1
ssI208
(dp433
g5
g6
(g7
(I0
tS'b'
tRp434
(I1
(tg10
I00
S'\x81\xbf\xb3Ua\xb12@'
tbsg11
F1
ssI209
(dp435
g5
g6
(g7
(I0
tS'b'
tRp436
(I1
(tg10
I00
S':\xf1\x18\x10c\x050@'
tbsg11
F1
ssI210
(dp437
g5
g6
(g7
(I0
tS'b'
tRp438
(I1
(tg10
I00
S'\xb8=B\xffj\xa97@'
tbsg11
F1
ssI211
(dp439
g5
g6
(g7
(I0
tS'b'
tRp440
(I1
(tg10
I00
S'\xf9p\xc6\xe7]\xc75@'
tbsg11
F1
ssI212
(dp441
g5
g6
(g7
(I0
tS'b'
tRp442
(I1
(tg10
I00
S'\xcb\x8aF\xe2\x91\x017@'
tbsg11
F1
ssI213
(dp443
g5
g6
(g7
(I0
tS'b'
tRp444
(I1
(tg10
I00
S'\x82\xa8\rj\xc1\xb5.@'
tbsg11
F1
ssI214
(dp445
g5
g6
(g7
(I0
tS'b'
tRp446
(I1
(tg10
I00
S'\xe0\x12\xed\x0e?_/@'
tbsg11
F1
ssI215
(dp447
g5
g6
(g7
(I0
tS'b'
tRp448
(I1
(tg10
I00
S'za-\xb4\x15\r*@'
tbsg11
F1
ssI216
(dp449
g5
g6
(g7
(I0
tS'b'
tRp450
(I1
(tg10
I00
S'*\x98\xf1^\xbd\x182@'
tbsg11
F1
ssI217
(dp451
g5
g6
(g7
(I0
tS'b'
tRp452
(I1
(tg10
I00
S"\x0c'~\xbc\xb1W<@"
tbsg11
F1
ssI218
(dp453
g5
g6
(g7
(I0
tS'b'
tRp454
(I1
(tg10
I00
S'R!\x88Gh\xc1?@'
tbsg11
F1
ssI219
(dp455
g5
g6
(g7
(I0
tS'b'
tRp456
(I1
(tg10
I00
S' \xdb\xda]\xeaL2@'
tbsg11
F1
ssI220
(dp457
g5
g6
(g7
(I0
tS'b'
tRp458
(I1
(tg10
I00
S'\x88\xf3L\x80\xc8\x95/@'
tbsg11
F1
ssI221
(dp459
g5
g6
(g7
(I0
tS'b'
tRp460
(I1
(tg10
I00
S'\x181\x05\xb8\x1a(7@'
tbsg11
F1
ssI222
(dp461
g5
g6
(g7
(I0
tS'b'
tRp462
(I1
(tg10
I00
S'(\xfa\xc0@"\x995@'
tbsg11
F1
ssI223
(dp463
g5
g6
(g7
(I0
tS'b'
tRp464
(I1
(tg10
I00
S'(\x13\x1b\x98\xcam6@'
tbsg11
F1
ssI224
(dp465
g5
g6
(g7
(I0
tS'b'
tRp466
(I1
(tg10
I00
S'o\n]\x04\x8dV.@'
tbsg11
F1
ssI225
(dp467
g5
g6
(g7
(I0
tS'b'
tRp468
(I1
(tg10
I00
S'\xbd?\x95\x8d7\xf3.@'
tbsg11
F1
ssI226
(dp469
g5
g6
(g7
(I0
tS'b'
tRp470
(I1
(tg10
I00
S'\xa0\x1d7\xc2\x19~)@'
tbsg11
F1
ssI227
(dp471
g5
g6
(g7
(I0
tS'b'
tRp472
(I1
(tg10
I00
S'\x8d\xb3\xaf\xe4\x8c\xd31@'
tbsg11
F1
ssI228
(dp473
g5
g6
(g7
(I0
tS'b'
tRp474
(I1
(tg10
I00
S'\x95\xc9c\x9d\xb9\x16<@'
tbsg11
F1
ssI229
(dp475
g5
g6
(g7
(I0
tS'b'
tRp476
(I1
(tg10
I00
S'n\x98\x91\xf7\xbe\x0e?@'
tbsg11
F1
ssI230
(dp477
g5
g6
(g7
(I0
tS'b'
tRp478
(I1
(tg10
I00
S'\xe3\xba\xf9n\x0c\xf81@'
tbsg11
F1
ssI231
(dp479
g5
g6
(g7
(I0
tS'b'
tRp480
(I1
(tg10
I00
S'?\xc3\x8b\xed\xd08/@'
tbsg11
F1
ssI232
(dp481
g5
g6
(g7
(I0
tS'b'
tRp482
(I1
(tg10
I00
S'\x85\xf0\xe3\x9b\xf3\xb06@'
tbsg11
F1
ssI233
(dp483
g5
g6
(g7
(I0
tS'b'
tRp484
(I1
(tg10
I00
S'\x1b\xe58,1b5@'
tbsg11
F1
ssI234
(dp485
g5
g6
(g7
(I0
tS'b'
tRp486
(I1
(tg10
I00
S'\xc9\x15&\xa7\x8e\xe85@'
tbsg11
F1
ssI235
(dp487
g5
g6
(g7
(I0
tS'b'
tRp488
(I1
(tg10
I00
S'\xe6\x04\xdf\xf7\xb5\xf7-@'
tbsg11
F1
ssI236
(dp489
g5
g6
(g7
(I0
tS'b'
tRp490
(I1
(tg10
I00
S'j6\xf0\xad\xc2\x91.@'
tbsg11
F1
ssI237
(dp491
g5
g6
(g7
(I0
tS'b'
tRp492
(I1
(tg10
I00
S'\x7f%\x05\xe1\xdd\xf4(@'
tbsg11
F1
ssI238
(dp493
g5
g6
(g7
(I0
tS'b'
tRp494
(I1
(tg10
I00
S'M\xb7\xff\x14\xd9\x8b1@'
tbsg11
F1
ssI239
(dp495
g5
g6
(g7
(I0
tS'b'
tRp496
(I1
(tg10
I00
S';\x0e\x9a\x1c\x1e\xc9;@'
tbsg11
F1
ssI240
(dp497
g5
g6
(g7
(I0
tS'b'
tRp498
(I1
(tg10
I00
S'\x16\x81%o\x16\x8e>@'
tbsg11
F1
ssI241
(dp499
g5
g6
(g7
(I0
tS'b'
tRp500
(I1
(tg10
I00
S'\xf9\xed\xa9\xb6\xb8\x9d1@'
tbsg11
F1
ssI242
(dp501
g5
g6
(g7
(I0
tS'b'
tRp502
(I1
(tg10
I00
S'\xad\xddv\xa8\xfc\xc8.@'
tbsg11
F1
ssI243
(dp503
g5
g6
(g7
(I0
tS'b'
tRp504
(I1
(tg10
I00
S'\xc78\\F\xfc36@'
tbsg11
F1
ssI244
(dp505
g5
g6
(g7
(I0
tS'b'
tRp506
(I1
(tg10
I00
S']\xc8i\x03\xed,5@'
tbsg11
F1
ssI245
(dp507
g5
g6
(g7
(I0
tS'b'
tRp508
(I1
(tg10
I00
S'\x8d&\x1b0\xfep5@'
tbsg11
F1
ssI246
(dp509
g5
g6
(g7
(I0
tS'b'
tRp510
(I1
(tg10
I00
S'\xb0l\x8d\x06t\xa3-@'
tbsg11
F1
ssI247
(dp511
g5
g6
(g7
(I0
tS'b'
tRp512
(I1
(tg10
I00
S'\xfe\x9b5\x14n=.@'
tbsg11
F1
ssI248
(dp513
g5
g6
(g7
(I0
tS'b'
tRp514
(I1
(tg10
I00
S'\x97\x86\xf7\x91\xaf\x87(@'
tbsg11
F1
ssI249
(dp515
g5
g6
(g7
(I0
tS'b'
tRp516
(I1
(tg10
I00
S'\xe5ss;\xe8y1@'
tbsg11
F1
ssI250
(dp517
g5
g6
(g7
(I0
tS'b'
tRp518
(I1
(tg10
I00
S'`\x8d\xb4\x00j\xa7;@'
tbsg11
F1
ssI251
(dp519
g5
g6
(g7
(I0
tS'b'
tRp520
(I1
(tg10
I00
S'\xbe\xae\x7fp\xe6}=@'
tbsg11
F1
ssI252
(dp521
g5
g6
(g7
(I0
tS'b'
tRp522
(I1
(tg10
I00
S'(d\xa4\xf7\x8ac1@'
tbsg11
F1
ssI253
(dp523
g5
g6
(g7
(I0
tS'b'
tRp524
(I1
(tg10
I00
S'\x00\xdeV\x01B\x8c.@'
tbsg11
F1
ssI254
(dp525
g5
g6
(g7
(I0
tS'b'
tRp526
(I1
(tg10
I00
S'\x88\x1eE4]\xc85@'
tbsg11
F1
ssI255
(dp527
g5
g6
(g7
(I0
tS'b'
tRp528
(I1
(tg10
I00
S'w\x19\x9d4s\x005@'
tbsg11
F1
ssI256
(dp529
g5
g6
(g7
(I0
tS'b'
tRp530
(I1
(tg10
I00
S'\xd9T*cP\xfd4@'
tbsg11
F1
ssI257
(dp531
g5
g6
(g7
(I0
tS'b'
tRp532
(I1
(tg10
I00
S'"7\xd9p\xd27-@'
tbsg11
F1
ssI258
(dp533
g5
g6
(g7
(I0
tS'b'
tRp534
(I1
(tg10
I00
S'0\xd6\x0f\x8e\xd6\xeb-@'
tbsg11
F1
ssI259
(dp535
g5
g6
(g7
(I0
tS'b'
tRp536
(I1
(tg10
I00
S'\x02\x7f\xe8\xfc\xaa\x02(@'
tbsg11
F1
ssI260
(dp537
g5
g6
(g7
(I0
tS'b'
tRp538
(I1
(tg10
I00
S"Z'\xd3\xc6s!1@"
tbsg11
F1
ssI261
(dp539
g5
g6
(g7
(I0
tS'b'
tRp540
(I1
(tg10
I00
S'\x7f\xf6\xf1A\xfe@;@'
tbsg11
F1
ssI262
(dp541
g5
g6
(g7
(I0
tS'b'
tRp542
(I1
(tg10
I00
S'\xcd<\x08\xfa>@=@'
tbsg11
F1
ssI263
(dp543
g5
g6
(g7
(I0
tS'b'
tRp544
(I1
(tg10
I00
S'6\xbe\xe1\xfe\xab\x021@'
tbsg11
F1
ssI264
(dp545
g5
g6
(g7
(I0
tS'b'
tRp546
(I1
(tg10
I00
S'\xa6A\xe0U*\x1a.@'
tbsg11
F1
ssI265
(dp547
g5
g6
(g7
(I0
tS'b'
tRp548
(I1
(tg10
I00
S'\xfdT\x810\x03H5@'
tbsg11
F1
ssI266
(dp549
g5
g6
(g7
(I0
tS'b'
tRp550
(I1
(tg10
I00
S'\xed9\x15\xd9\xd5\xaa4@'
tbsg11
F1
ssI267
(dp551
g5
g6
(g7
(I0
tS'b'
tRp552
(I1
(tg10
I00
S'p\xb7x+0\xa74@'
tbsg11
F1
ssI268
(dp553
g5
g6
(g7
(I0
tS'b'
tRp554
(I1
(tg10
I00
S'\xb8\xda\xa9\x0b\xe9\xed,@'
tbsg11
F1
ssI269
(dp555
g5
g6
(g7
(I0
tS'b'
tRp556
(I1
(tg10
I00
S'~z\xe5Z\x06t-@'
tbsg11
F1
ssI270
(dp557
g5
g6
(g7
(I0
tS'b'
tRp558
(I1
(tg10
I00
S"\xdfO\xa7\xf6\x19n'@"
tbsg11
F1
ssI271
(dp559
g5
g6
(g7
(I0
tS'b'
tRp560
(I1
(tg10
I00
S'\xb9\n\xffD\x14\x960@'
tbsg11
F1
ssI272
(dp561
g5
g6
(g7
(I0
tS'b'
tRp562
(I1
(tg10
I00
S'$\x84\x1d\xf5-\x94:@'
tbsg11
F1
ssI273
(dp563
g5
g6
(g7
(I0
tS'b'
tRp564
(I1
(tg10
I00
S'\x86:l\x98\x12P=@'
tbsg11
F1
ssI274
(dp565
g5
g6
(g7
(I0
tS'b'
tRp566
(I1
(tg10
I00
S'\x84\xd6,y\x9a\x940@'
tbsg11
F1
ssI275
(dp567
g5
g6
(g7
(I0
tS'b'
tRp568
(I1
(tg10
I00
S'M\xb9\xcfz\xf6\x8b-@'
tbsg11
F1
ssI276
(dp569
g5
g6
(g7
(I0
tS'b'
tRp570
(I1
(tg10
I00
S'i\x1dp\xbdU\xce4@'
tbsg11
F1
ssI277
(dp571
g5
g6
(g7
(I0
tS'b'
tRp572
(I1
(tg10
I00
S'\x97;\xb55HL4@'
tbsg11
F1
ssI278
(dp573
g5
g6
(g7
(I0
tS'b'
tRp574
(I1
(tg10
I00
S'm\xb0\xaemvZ4@'
tbsg11
F1
ssI279
(dp575
g5
g6
(g7
(I0
tS'b'
tRp576
(I1
(tg10
I00
S'&\x14\x9f:v\xc1,@'
tbsg11
F1
ssI280
(dp577
g5
g6
(g7
(I0
tS'b'
tRp578
(I1
(tg10
I00
S"\x81-\xb5\xdan'-@"
tbsg11
F1
ssI281
(dp579
g5
g6
(g7
(I0
tS'b'
tRp580
(I1
(tg10
I00
S"QB-\x1e\xd8\x00'@"
tbsg11
F1
ssI282
(dp581
g5
g6
(g7
(I0
tS'b'
tRp582
(I1
(tg10
I00
S'\xbb\xd6\x8fF\xa8\xbc0@'
tbsg11
F1
ssI283
(dp583
g5
g6
(g7
(I0
tS'b'
tRp584
(I1
(tg10
I00
S'\x14NNTS\xc3:@'
tbsg11
F1
ssI284
(dp585
g5
g6
(g7
(I0
tS'b'
tRp586
(I1
(tg10
I00
S'\xca\x1e\xd2\xe7\xb6\xf5;@'
tbsg11
F1
ssI285
(dp587
g5
g6
(g7
(I0
tS'b'
tRp588
(I1
(tg10
I00
S'\xcaP\xaaD\xbfm0@'
tbsg11
F1
ssI286
(dp589
g5
g6
(g7
(I0
tS'b'
tRp590
(I1
(tg10
I00
S'\x8fd\xa6P\xadp-@'
tbsg11
F1
ssI287
(dp591
g5
g6
(g7
(I0
tS'b'
tRp592
(I1
(tg10
I00
S'+\xc0\xd4o\x07Q4@'
tbsg11
F1
ssI288
(dp593
g5
g6
(g7
(I0
tS'b'
tRp594
(I1
(tg10
I00
S'\x1d\x90\xe4\xeb\xdd\xe83@'
tbsg11
F1
ssI289
(dp595
g5
g6
(g7
(I0
tS'b'
tRp596
(I1
(tg10
I00
S'\xf8\x0f\x96\x18r\x084@'
tbsg11
F1
ssI290
(dp597
g5
g6
(g7
(I0
tS'b'
tRp598
(I1
(tg10
I00
S'\x1f\xde\xb8\x18|?,@'
tbsg11
F1
ssI291
(dp599
g5
g6
(g7
(I0
tS'b'
tRp600
(I1
(tg10
I00
S'\t\xfe\xb6\xb3C\xde,@'
tbsg11
F1
ssI292
(dp601
g5
g6
(g7
(I0
tS'b'
tRp602
(I1
(tg10
I00
S'#\x1d\xda0\xeaz&@'
tbsg11
F1
ssI293
(dp603
g5
g6
(g7
(I0
tS'b'
tRp604
(I1
(tg10
I00
S'\xa1\xce\xdfGf\x130@'
tbsg11
F1
ssI294
(dp605
g5
g6
(g7
(I0
tS'b'
tRp606
(I1
(tg10
I00
S'pq\x1b\x9f\xde\xfc9@'
tbsg11
F1
ssI295
(dp607
g5
g6
(g7
(I0
tS'b'
tRp608
(I1
(tg10
I00
S'v\x89\x9aWH\x13<@'
tbsg11
F1
ssI296
(dp609
g5
g6
(g7
(I0
tS'b'
tRp610
(I1
(tg10
I00
S'\xda\xc9\x9c\xa9\x8b\xf9/@'
tbsg11
F1
ssI297
(dp611
g5
g6
(g7
(I0
tS'b'
tRp612
(I1
(tg10
I00
S'r\xa3\x16\xd2\x14\xf8,@'
tbsg11
F1
ssI298
(dp613
g5
g6
(g7
(I0
tS'b'
tRp614
(I1
(tg10
I00
S')\n\xae\x17t\xb03@'
tbsg11
F1
ssI299
(dp615
g5
g6
(g7
(I0
tS'b'
tRp616
(I1
(tg10
I00
S'|\xf4\xf97;k3@'
tbsg11
F1
ssI300
(dp617
g5
g6
(g7
(I0
tS'b'
tRp618
(I1
(tg10
I00
S'\xe5C\xbd\xf6\x1c\xd03@'
tbsg11
F1
sg210
(lp619
S'D:\\users\\chxing\\aaai2017Exp\\JPdata\\r50maxcount.q1min10max.2-20.1-20\\s2sa_topicAwareGeneration\\/params.npz.300'
p620
aS'D:\\users\\chxing\\aaai2017Exp\\JPdata\\r50maxcount.q1min10max.2-20.1-20\\s2sa_topicAwareGeneration\\/iterations_state.pkl.300'
p621
aS'D:\\users\\chxing\\aaai2017Exp\\JPdata\\r50maxcount.q1min10max.2-20.1-20\\s2sa_topicAwareGeneration\\/log.300'
p622
assI301
(dp623
g5
g6
(g7
(I0
tS'b'
tRp624
(I1
(tg10
I00
S'9&\xc1\xdc\xdb\x00,@'
tbsg11
F1
ssI302
(dp625
g5
g6
(g7
(I0
tS'b'
tRp626
(I1
(tg10
I00
S'\x90?\x91\xd8\xf5y,@'
tbsg11
F1
ssI303
(dp627
g5
g6
(g7
(I0
tS'b'
tRp628
(I1
(tg10
I00
S"Y'\xbf\x90`\xf8%@"
tbsg11
F1
ssI304
(dp629
g5
g6
(g7
(I0
tS'b'
tRp630
(I1
(tg10
I00
S'/\xd6Aey\x0c0@'
tbsg11
F1
ssI305
(dp631
g5
g6
(g7
(I0
tS'b'
tRp632
(I1
(tg10
I00
S'"\xe3\xd0[\x07\xd69@'
tbsg11
F1
ssI306
(dp633
g5
g6
(g7
(I0
tS'b'
tRp634
(I1
(tg10
I00
S'\x87\x8f?[&\xd3:@'
tbsg11
F1
ssI307
(dp635
g5
g6
(g7
(I0
tS'b'
tRp636
(I1
(tg10
I00
S'\xc7\xbc\x18e\xcf^/@'
tbsg11
F1
ssI308
(dp637
g5
g6
(g7
(I0
tS'b'
tRp638
(I1
(tg10
I00
S'\x89\x9b^\xa1Z\xaa,@'
tbsg11
F1
ssI309
(dp639
g5
g6
(g7
(I0
tS'b'
tRp640
(I1
(tg10
I00
S'\t\x90~Y\x02\xfe2@'
tbsg11
F1
ssI310
(dp641
g5
g6
(g7
(I0
tS'b'
tRp642
(I1
(tg10
I00
S'\xee\x1c\n_\x81\xda2@'
tbsg11
F1
ssI311
(dp643
g5
g6
(g7
(I0
tS'b'
tRp644
(I1
(tg10
I00
S'iE\x89-\xc5\x9c3@'
tbsg11
F1
ssI312
(dp645
g5
g6
(g7
(I0
tS'b'
tRp646
(I1
(tg10
I00
S'\xfa\xf3\x88\xf4\x96p+@'
tbsg11
F1
ssI313
(dp647
g5
g6
(g7
(I0
tS'b'
tRp648
(I1
(tg10
I00
S'\xa8@}\x9b\xd95,@'
tbsg11
F1
ssI314
(dp649
g5
g6
(g7
(I0
tS'b'
tRp650
(I1
(tg10
I00
S'\x93\xe2\x10\xd9"?%@'
tbsg11
F1
ssI315
(dp651
g5
g6
(g7
(I0
tS'b'
tRp652
(I1
(tg10
I00
S'\x1f\xb7\xe9\xc5Px/@'
tbsg11
F1
ssI316
(dp653
g5
g6
(g7
(I0
tS'b'
tRp654
(I1
(tg10
I00
S'\xe8\x81v\xc6\x1eT9@'
tbsg11
F1
ssI317
(dp655
g5
g6
(g7
(I0
tS'b'
tRp656
(I1
(tg10
I00
S'6i\xff\xfb\xc6\xd59@'
tbsg11
F1
ssI318
(dp657
g5
g6
(g7
(I0
tS'b'
tRp658
(I1
(tg10
I00
S'Y\xcd\x9c=\x16q.@'
tbsg11
F1
ssI319
(dp659
g5
g6
(g7
(I0
tS'b'
tRp660
(I1
(tg10
I00
S'\xfa\xcc\r{\xd5\x1d,@'
tbsg11
F1
ssI320
(dp661
g5
g6
(g7
(I0
tS'b'
tRp662
(I1
(tg10
I00
S'\x84\xa9\xd4\x0ew\x132@'
tbsg11
F1
ssI321
(dp663
g5
g6
(g7
(I0
tS'b'
tRp664
(I1
(tg10
I00
S'\xb1\x8ebT\xed\xea1@'
tbsg11
F1
ssI322
(dp665
g5
g6
(g7
(I0
tS'b'
tRp666
(I1
(tg10
I00
S'\xf7\xdc\xbf\xc7\xcf\x8c3@'
tbsg11
F1
ssI323
(dp667
g5
g6
(g7
(I0
tS'b'
tRp668
(I1
(tg10
I00
S'\x00pN\x1f\xc4\xc5*@'
tbsg11
F1
ssI324
(dp669
g5
g6
(g7
(I0
tS'b'
tRp670
(I1
(tg10
I00
S'o\xb1\x15t"\xce+@'
tbsg11
F1
ssI325
(dp671
g5
g6
(g7
(I0
tS'b'
tRp672
(I1
(tg10
I00
S'\xd6\x9b\xc0\xa3\x1eR$@'
tbsg11
F1
ssI326
(dp673
g5
g6
(g7
(I0
tS'b'
tRp674
(I1
(tg10
I00
S'\x05\xa8\xac\x01\r..@'
tbsg11
F1
ssI327
(dp675
g5
g6
(g7
(I0
tS'b'
tRp676
(I1
(tg10
I00
S'\x85\x1f\xa6\x85\xce\xaa8@'
tbsg11
F1
ssI328
(dp677
g5
g6
(g7
(I0
tS'b'
tRp678
(I1
(tg10
I00
S'\xa0\xbf\xd3\xcb\xa4?9@'
tbsg11
F1
ssI329
(dp679
g5
g6
(g7
(I0
tS'b'
tRp680
(I1
(tg10
I00
S'\xda\xd3>\x0e\xb9;-@'
tbsg11
F1
ssI330
(dp681
g5
g6
(g7
(I0
tS'b'
tRp682
(I1
(tg10
I00
S'T\xc9\xfd\x1a\x87`+@'
tbsg11
F1
ssI331
(dp683
g5
g6
(g7
(I0
tS'b'
tRp684
(I1
(tg10
I00
S'\x88=\x84\xb6\n\xf60@'
tbsg11
F1
ssI332
(dp685
g5
g6
(g7
(I0
tS'b'
tRp686
(I1
(tg10
I00
S'\x16\xd7u,}\xe60@'
tbsg11
F1
ssI333
(dp687
g5
g6
(g7
(I0
tS'b'
tRp688
(I1
(tg10
I00
S'\xae\rd\x1f(\x8f3@'
tbsg11
F1
ssI334
(dp689
g5
g6
(g7
(I0
tS'b'
tRp690
(I1
(tg10
I00
S';\xfb\x16\xa4\x80\x02*@'
tbsg11
F1
ssI335
(dp691
g5
g6
(g7
(I0
tS'b'
tRp692
(I1
(tg10
I00
S'do\xbf\xd8\xc7\x98+@'
tbsg11
F1
ssI336
(dp693
g5
g6
(g7
(I0
tS'b'
tRp694
(I1
(tg10
I00
S':\x93\xef+\xb52#@'
tbsg11
F1
ssI337
(dp695
g5
g6
(g7
(I0
tS'b'
tRp696
(I1
(tg10
I00
S'tg\xf6@\xaa\xc2,@'
tbsg11
F1
ssI338
(dp697
g5
g6
(g7
(I0
tS'b'
tRp698
(I1
(tg10
I00
S'\xe3\x05\xcd\x99,\xce7@'
tbsg11
F1
ssI339
(dp699
g5
g6
(g7
(I0
tS'b'
tRp700
(I1
(tg10
I00
S'\xe12\xce\xe6g\x858@'
tbsg11
F1
ssI340
(dp701
g5
g6
(g7
(I0
tS'b'
tRp702
(I1
(tg10
I00
S'\xa4\xcd\xd3>"\xbb+@'
tbsg11
F1
ssI341
(dp703
g5
g6
(g7
(I0
tS'b'
tRp704
(I1
(tg10
I00
S'\xcc\x840\xc8\xddi*@'
tbsg11
F1
ssI342
(dp705
g5
g6
(g7
(I0
tS'b'
tRp706
(I1
(tg10
I00
S'\x96\xd2\xac\xa7:\x86/@'
tbsg11
F1
ssI343
(dp707
g5
g6
(g7
(I0
tS'b'
tRp708
(I1
(tg10
I00
S'7#\xd13u\xe3/@'
tbsg11
F1
ssI344
(dp709
g5
g6
(g7
(I0
tS'b'
tRp710
(I1
(tg10
I00
S'm<wd\x98\x8c3@'
tbsg11
F1
ssI345
(dp711
g5
g6
(g7
(I0
tS'b'
tRp712
(I1
(tg10
I00
S'\xf9\xd37\x13\x87\xf3(@'
tbsg11
F1
ssI346
(dp713
g5
g6
(g7
(I0
tS'b'
tRp714
(I1
(tg10
I00
S'I\x90S\xa2 \x17,@'
tbsg11
F1
ssI347
(dp715
g5
g6
(g7
(I0
tS'b'
tRp716
(I1
(tg10
I00
S'R\xb6\x01VU\xf9!@'
tbsg11
F1
ssI348
(dp717
g5
g6
(g7
(I0
tS'b'
tRp718
(I1
(tg10
I00
S'\x19\x9c\x8fzV\xfb*@'
tbsg11
F1
ssI349
(dp719
g5
g6
(g7
(I0
tS'b'
tRp720
(I1
(tg10
I00
S'\xa5A\x04Sx\x8f6@'
tbsg11
F1
ssI350
(dp721
g5
g6
(g7
(I0
tS'b'
tRp722
(I1
(tg10
I00
S'\xe4B\xc26X]8@'
tbsg11
F1
ssI351
(dp723
g5
g6
(g7
(I0
tS'b'
tRp724
(I1
(tg10
I00
S'c\xb7^\xe5\x08/*@'
tbsg11
F1
ssI352
(dp725
g5
g6
(g7
(I0
tS'b'
tRp726
(I1
(tg10
I00
S'O_\xbf\x90\xf8\xb5)@'
tbsg11
F1
ssI353
(dp727
g5
g6
(g7
(I0
tS'b'
tRp728
(I1
(tg10
I00
S'@\xd9\xbc\x19\xbeA-@'
tbsg11
F1
ssI354
(dp729
g5
g6
(g7
(I0
tS'b'
tRp730
(I1
(tg10
I00
S'wN\x13\x02V\n.@'
tbsg11
F1
ssI355
(dp731
g5
g6
(g7
(I0
tS'b'
tRp732
(I1
(tg10
I00
S'\x10\x12*\x00\x95g3@'
tbsg11
F1
ssI356
(dp733
g5
g6
(g7
(I0
tS'b'
tRp734
(I1
(tg10
I00
S"\x97\x90\x8cUV\xe2'@"
tbsg11
F1
ssI357
(dp735
g5
g6
(g7
(I0
tS'b'
tRp736
(I1
(tg10
I00
S'I\x9b\xb1\xf3A\x0c-@'
tbsg11
F1
ssI358
(dp737
g5
g6
(g7
(I0
tS'b'
tRp738
(I1
(tg10
I00
S'\x86`t\x12\xc5\xd2 @'
tbsg11
F1
ssI359
(dp739
g5
g6
(g7
(I0
tS'b'
tRp740
(I1
(tg10
I00
S'\x98\x1c\xf6\x8d\xe7/)@'
tbsg11
F1
ssI360
(dp741
g5
g6
(g7
(I0
tS'b'
tRp742
(I1
(tg10
I00
S'\xf4\xd8\x1fn\xb7\x155@'
tbsg11
F1
ssI361
(dp743
g5
g6
(g7
(I0
tS'b'
tRp744
(I1
(tg10
I00
S'G}\x0b\xc4oo8@'
tbsg11
F1
ssI362
(dp745
g5
g6
(g7
(I0
tS'b'
tRp746
(I1
(tg10
I00
S';p\x94\x90M\xe3(@'
tbsg11
F1
ssI363
(dp747
g5
g6
(g7
(I0
tS'b'
tRp748
(I1
(tg10
I00
S'\x10\x85\x1a@fV)@'
tbsg11
F1
ssI364
(dp749
g5
g6
(g7
(I0
tS'b'
tRp750
(I1
(tg10
I00
S'\xb5a\xcaP\xec\xa0+@'
tbsg11
F1
ssI365
(dp751
g5
g6
(g7
(I0
tS'b'
tRp752
(I1
(tg10
I00
S'\x1e48\xbd\xf9\xf0,@'
tbsg11
F1
ssI366
(dp753
g5
g6
(g7
(I0
tS'b'
tRp754
(I1
(tg10
I00
S'FD\xd8MI\r3@'
tbsg11
F1
ssI367
(dp755
g5
g6
(g7
(I0
tS'b'
tRp756
(I1
(tg10
I00
S'\x12\xd2v%\xd5\xe2&@'
tbsg11
F1
ssI368
(dp757
g5
g6
(g7
(I0
tS'b'
tRp758
(I1
(tg10
I00
S'\xe6\xbf&\xa7+\xd4-@'
tbsg11
F1
ssI369
(dp759
g5
g6
(g7
(I0
tS'b'
tRp760
(I1
(tg10
I00
S'l|\xebL\xa4- @'
tbsg11
F1
ssI370
(dp761
g5
g6
(g7
(I0
tS'b'
tRp762
(I1
(tg10
I00
S"\x00\x95\xa7\x8d\x97]'@"
tbsg11
F1
ssI371
(dp763
g5
g6
(g7
(I0
tS'b'
tRp764
(I1
(tg10
I00
S'\xc31\xa3(\x92\xe12@'
tbsg11
F1
ssI372
(dp765
g5
g6
(g7
(I0
tS'b'
tRp766
(I1
(tg10
I00
S'R\xb1r\\\x17\xa89@'
tbsg11
F1
ssI373
(dp767
g5
g6
(g7
(I0
tS'b'
tRp768
(I1
(tg10
I00
S"\xfe\x0f\x1e\xdc\x84]'@"
tbsg11
F1
ssI374
(dp769
g5
g6
(g7
(I0
tS'b'
tRp770
(I1
(tg10
I00
S'%\x87\xdb\xc1\xed\xa2)@'
tbsg11
F1
ssI375
(dp771
g5
g6
(g7
(I0
tS'b'
tRp772
(I1
(tg10
I00
S'N\xae$f\x04\\*@'
tbsg11
F1
ssI376
(dp773
g5
g6
(g7
(I0
tS'b'
tRp774
(I1
(tg10
I00
S'\xc0\xf9m\xdc\xbc\xae+@'
tbsg11
F1
ssI377
(dp775
g5
g6
(g7
(I0
tS'b'
tRp776
(I1
(tg10
I00
S'\xd6\xbc\x19#y\xad2@'
tbsg11
F1
ssI378
(dp777
g5
g6
(g7
(I0
tS'b'
tRp778
(I1
(tg10
I00
S'\x00.p\x0c\xae7&@'
tbsg11
F1
ssI379
(dp779
g5
g6
(g7
(I0
tS'b'
tRp780
(I1
(tg10
I00
S'\x92F\xf6\xdf$\xf1-@'
tbsg11
F1
ssI380
(dp781
g5
g6
(g7
(I0
tS'b'
tRp782
(I1
(tg10
I00
S'G\x16\xf1U\xa8\xa4\x1f@'
tbsg11
F1
ssI381
(dp783
g5
g6
(g7
(I0
tS'b'
tRp784
(I1
(tg10
I00
S'rO\xf0\xc8$T&@'
tbsg11
F1
ssI382
(dp785
g5
g6
(g7
(I0
tS'b'
tRp786
(I1
(tg10
I00
S'\n{m\x14uC1@'
tbsg11
F1
ssI383
(dp787
g5
g6
(g7
(I0
tS'b'
tRp788
(I1
(tg10
I00
S'\xf2\x10\x89%\xa9\xb79@'
tbsg11
F1
ssI384
(dp789
g5
g6
(g7
(I0
tS'b'
tRp790
(I1
(tg10
I00
S'\x04\xa3\xdb\x06\x10d&@'
tbsg11
F1
ssI385
(dp791
g5
g6
(g7
(I0
tS'b'
tRp792
(I1
(tg10
I00
S'w\xa0\x9cu\xe2\xb3)@'
tbsg11
F1
ssI386
(dp793
g5
g6
(g7
(I0
tS'b'
tRp794
(I1
(tg10
I00
S'\xab\x91<<\xc7\x90)@'
tbsg11
F1
ssI387
(dp795
g5
g6
(g7
(I0
tS'b'
tRp796
(I1
(tg10
I00
S'\xc1o\x8a\xf7\xde\x8d*@'
tbsg11
F1
ssI388
(dp797
g5
g6
(g7
(I0
tS'b'
tRp798
(I1
(tg10
I00
S'\xbcFjY\xab[2@'
tbsg11
F1
ssI389
(dp799
g5
g6
(g7
(I0
tS'b'
tRp800
(I1
(tg10
I00
S'\x1d\xa1\xf0\x8eE\xa7%@'
tbsg11
F1
ssI390
(dp801
g5
g6
(g7
(I0
tS'b'
tRp802
(I1
(tg10
I00
S'\xd3\xcd\x8et\xc3\xa7-@'
tbsg11
F1
ssI391
(dp803
g5
g6
(g7
(I0
tS'b'
tRp804
(I1
(tg10
I00
S'\x177\xb4+iJ\x1f@'
tbsg11
F1
ssI392
(dp805
g5
g6
(g7
(I0
tS'b'
tRp806
(I1
(tg10
I00
S'~^_1\x90h%@'
tbsg11
F1
ssI393
(dp807
g5
g6
(g7
(I0
tS'b'
tRp808
(I1
(tg10
I00
S'\x08\xf0^S\xc0k/@'
tbsg11
F1
ssI394
(dp809
g5
g6
(g7
(I0
tS'b'
tRp810
(I1
(tg10
I00
S'\xf0\xbe\x84,.\xea9@'
tbsg11
F1
ssI395
(dp811
g5
g6
(g7
(I0
tS'b'
tRp812
(I1
(tg10
I00
S'\x8cb\xd5\xd5\xb8\x8d%@'
tbsg11
F1
ssI396
(dp813
g5
g6
(g7
(I0
tS'b'
tRp814
(I1
(tg10
I00
S'\xae\x0e\xc7Ws\x11*@'
tbsg11
F1
ssI397
(dp815
g5
g6
(g7
(I0
tS'b'
tRp816
(I1
(tg10
I00
S'=O\xbc\x99F\xe2(@'
tbsg11
F1
ssI398
(dp817
g5
g6
(g7
(I0
tS'b'
tRp818
(I1
(tg10
I00
S'\xacD\xca\x1d\xd1\xaa)@'
tbsg11
F1
ssI399
(dp819
g5
g6
(g7
(I0
tS'b'
tRp820
(I1
(tg10
I00
S'\x01i\x17cJ\xf11@'
tbsg11
F1
ssI400
(dp821
g5
g6
(g7
(I0
tS'b'
tRp822
(I1
(tg10
I00
S'i\xbe\xb0\xf5W.%@'
tbsg11
F1
sg210
(lp823
S'D:\\users\\chxing\\aaai2017Exp\\JPdata\\r50maxcount.q1min10max.2-20.1-20\\s2sa_topicAwareGeneration\\/params.npz.400'
p824
aS'D:\\users\\chxing\\aaai2017Exp\\JPdata\\r50maxcount.q1min10max.2-20.1-20\\s2sa_topicAwareGeneration\\/iterations_state.pkl.400'
p825
aS'D:\\users\\chxing\\aaai2017Exp\\JPdata\\r50maxcount.q1min10max.2-20.1-20\\s2sa_topicAwareGeneration\\/log.400'
p826
assI401
(dp827
g5
g6
(g7
(I0
tS'b'
tRp828
(I1
(tg10
I00
S'\x08\xa8\xb9@\xb9Q-@'
tbsg11
F1
ssI402
(dp829
g5
g6
(g7
(I0
tS'b'
tRp830
(I1
(tg10
I00
S'?\x02R\x02\xc1\xfd\x1e@'
tbsg11
F1
ssI403
(dp831
g5
g6
(g7
(I0
tS'b'
tRp832
(I1
(tg10
I00
S'^\xb4\xe78\xd9\xd8$@'
tbsg11
F1
ssI404
(dp833
g5
g6
(g7
(I0
tS'b'
tRp834
(I1
(tg10
I00
S'Y\x8b\xabT\x9b\xbd-@'
tbsg11
F1
ssI405
(dp835
g5
g6
(g7
(I0
tS'b'
tRp836
(I1
(tg10
I00
S'\xb69\xdf\xba{\xa48@'
tbsg11
F1
ssI406
(dp837
g5
g6
(g7
(I0
tS'b'
tRp838
(I1
(tg10
I00
S'\xcb\xd9\xac\xca\xf64%@'
tbsg11
F1
ssI407
(dp839
g5
g6
(g7
(I0
tS'b'
tRp840
(I1
(tg10
I00
S'\x80\xe58\xdeC\xbb)@'
tbsg11
F1
ssI408
(dp841
g5
g6
(g7
(I0
tS'b'
tRp842
(I1
(tg10
I00
S'\xdb\x07\x93\xa2\xddm(@'
tbsg11
F1
ssI409
(dp843
g5
g6
(g7
(I0
tS'b'
tRp844
(I1
(tg10
I00
S'G.9\xbd\xd5\xc7(@'
tbsg11
F1
ssI410
(dp845
g5
g6
(g7
(I0
tS'b'
tRp846
(I1
(tg10
I00
S'\xa6A\x00=\xd4\x9d1@'
tbsg11
F1
ssI411
(dp847
g5
g6
(g7
(I0
tS'b'
tRp848
(I1
(tg10
I00
S'y2\xc6Ro\xb8$@'
tbsg11
F1
ssI412
(dp849
g5
g6
(g7
(I0
tS'b'
tRp850
(I1
(tg10
I00
S'\x1b:\x9f\xb0\x07\xde,@'
tbsg11
F1
ssI413
(dp851
g5
g6
(g7
(I0
tS'b'
tRp852
(I1
(tg10
I00
S'W\xd7c\xc5&\xb6\x1e@'
tbsg11
F1
ssI414
(dp853
g5
g6
(g7
(I0
tS'b'
tRp854
(I1
(tg10
I00
S'\x9d\xab!}\xf7.$@'
tbsg11
F1
ssI415
(dp855
g5
g6
(g7
(I0
tS'b'
tRp856
(I1
(tg10
I00
S'\xd1\x7f0\x9ceR+@'
tbsg11
F1
ssI416
(dp857
g5
g6
(g7
(I0
tS'b'
tRp858
(I1
(tg10
I00
S'\xf4-\xcb\xe4X\x087@'
tbsg11
F1
ssI417
(dp859
g5
g6
(g7
(I0
tS'b'
tRp860
(I1
(tg10
I00
S'L\xc7\xfeGs\x16%@'
tbsg11
F1
ssI418
(dp861
g5
g6
(g7
(I0
tS'b'
tRp862
(I1
(tg10
I00
S'I\xbb\x9dJ\xbe\x05*@'
tbsg11
F1
ssI419
(dp863
g5
g6
(g7
(I0
tS'b'
tRp864
(I1
(tg10
I00
S"\xb6\x9b\x99\xbf\xce\xdd'@"
tbsg11
F1
ssI420
(dp865
g5
g6
(g7
(I0
tS'b'
tRp866
(I1
(tg10
I00
S"\xcb\xf3KY\xf9\xfc'@"
tbsg11
F1
ssI421
(dp867
g5
g6
(g7
(I0
tS'b'
tRp868
(I1
(tg10
I00
S'$\xf2jk\x1e%1@'
tbsg11
F1
ssI422
(dp869
g5
g6
(g7
(I0
tS'b'
tRp870
(I1
(tg10
I00
S'\xb9\xeac!FT$@'
tbsg11
F1
ssI423
(dp871
g5
g6
(g7
(I0
tS'b'
tRp872
(I1
(tg10
I00
S'[x\x9a\x00\x19|,@'
tbsg11
F1
ssI424
(dp873
g5
g6
(g7
(I0
tS'b'
tRp874
(I1
(tg10
I00
S'\xd7\xb3\x15\x1f#m\x1e@'
tbsg11
F1
ssI425
(dp875
g5
g6
(g7
(I0
tS'b'
tRp876
(I1
(tg10
I00
S'\x10\x1au\xa1p\x97#@'
tbsg11
F1
ssI426
(dp877
g5
g6
(g7
(I0
tS'b'
tRp878
(I1
(tg10
I00
S'\xccr>\xd6Na)@'
tbsg11
F1
ssI427
(dp879
g5
g6
(g7
(I0
tS'b'
tRp880
(I1
(tg10
I00
S'L\x7f\xc0\xfe\xb3\x085@'
tbsg11
F1
ssI428
(dp881
g5
g6
(g7
(I0
tS'b'
tRp882
(I1
(tg10
I00
S'm\x8cu\xb0UD%@'
tbsg11
F1
ssI429
(dp883
g5
g6
(g7
(I0
tS'b'
tRp884
(I1
(tg10
I00
S'\xe3\x96\xcf\x1f\xb3\xa5)@'
tbsg11
F1
ssI430
(dp885
g5
g6
(g7
(I0
tS'b'
tRp886
(I1
(tg10
I00
S"\x10&\xb8\xe9\tu'@"
tbsg11
F1
ssI431
(dp887
g5
g6
(g7
(I0
tS'b'
tRp888
(I1
(tg10
I00
S'P\x02\xda\x17$\xf6&@'
tbsg11
F1
ssI432
(dp889
g5
g6
(g7
(I0
tS'b'
tRp890
(I1
(tg10
I00
S'\xb0m\x88\xdbN\xc40@'
tbsg11
F1
ssI433
(dp891
g5
g6
(g7
(I0
tS'b'
tRp892
(I1
(tg10
I00
S'I\xa7\xfc\xe7S\xf6#@'
tbsg11
F1
ssI434
(dp893
g5
g6
(g7
(I0
tS'b'
tRp894
(I1
(tg10
I00
S'\xdbfkc@\xde+@'
tbsg11
F1
ssI435
(dp895
g5
g6
(g7
(I0
tS'b'
tRp896
(I1
(tg10
I00
S'k\xf9u\x86\x95j\x1e@'
tbsg11
F1
ssI436
(dp897
g5
g6
(g7
(I0
tS'b'
tRp898
(I1
(tg10
I00
S'\xc0\xec\xf3\xc5A\x07#@'
tbsg11
F1
ssI437
(dp899
g5
g6
(g7
(I0
tS'b'
tRp900
(I1
(tg10
I00
S"\x8c\x05\x10th\xe3'@"
tbsg11
F1
ssI438
(dp901
g5
g6
(g7
(I0
tS'b'
tRp902
(I1
(tg10
I00
S'kcO]\xf6{2@'
tbsg11
F1
ssI439
(dp903
g5
g6
(g7
(I0
tS'b'
tRp904
(I1
(tg10
I00
S'\x9e0vX~\xd6%@'
tbsg11
F1
ssI440
(dp905
g5
g6
(g7
(I0
tS'b'
tRp906
(I1
(tg10
I00
S'\xb5\xf8x\x85-\xad(@'
tbsg11
F1
ssI441
(dp907
g5
g6
(g7
(I0
tS'b'
tRp908
(I1
(tg10
I00
S"^k\xe5\xe7\x179'@"
tbsg11
F1
ssI442
(dp909
g5
g6
(g7
(I0
tS'b'
tRp910
(I1
(tg10
I00
S'\xbb\xeb\xc7,"t&@'
tbsg11
F1
ssI443
(dp911
g5
g6
(g7
(I0
tS'b'
tRp912
(I1
(tg10
I00
S'c<\xb9=T/0@'
tbsg11
F1
ssI444
(dp913
g5
g6
(g7
(I0
tS'b'
tRp914
(I1
(tg10
I00
S'\xde\x89\xa1i\ts#@'
tbsg11
F1
ssI445
(dp915
g5
g6
(g7
(I0
tS'b'
tRp916
(I1
(tg10
I00
S'\xb7\xd8{6Nx+@'
tbsg11
F1
ssI446
(dp917
g5
g6
(g7
(I0
tS'b'
tRp918
(I1
(tg10
I00
S'\xdeK\x8f\x04\xdf#\x1e@'
tbsg11
F1
ssI447
(dp919
g5
g6
(g7
(I0
tS'b'
tRp920
(I1
(tg10
I00
S'W)\xfa3+\x9a"@'
tbsg11
F1
ssI448
(dp921
g5
g6
(g7
(I0
tS'b'
tRp922
(I1
(tg10
I00
S'O}\x01\x0f\xf3\xa8&@'
tbsg11
F1
ssI449
(dp923
g5
g6
(g7
(I0
tS'b'
tRp924
(I1
(tg10
I00
S'\x8e\xc6\xe8\x02|\xdb-@'
tbsg11
F1
ssI450
(dp925
g5
g6
(g7
(I0
tS'b'
tRp926
(I1
(tg10
I00
S'^t%\xdb\x00\xfe&@'
tbsg11
F1
ssI451
(dp927
g5
g6
(g7
(I0
tS'b'
tRp928
(I1
(tg10
I00
S"\xf9K#\xa0w5'@"
tbsg11
F1
ssI452
(dp929
g5
g6
(g7
(I0
tS'b'
tRp930
(I1
(tg10
I00
S'\x94\x0c"\xe0@H\'@'
tbsg11
F1
ssI453
(dp931
g5
g6
(g7
(I0
tS'b'
tRp932
(I1
(tg10
I00
S'\x13\xf0\xaa\xa7\x92\xef%@'
tbsg11
F1
ssI454
(dp933
g5
g6
(g7
(I0
tS'b'
tRp934
(I1
(tg10
I00
S'\xa6\xa2,j\x8f(/@'
tbsg11
F1
ssI455
(dp935
g5
g6
(g7
(I0
tS'b'
tRp936
(I1
(tg10
I00
S'\xc1\x87\xcc\xd2K\xb9"@'
tbsg11
F1
ssI456
(dp937
g5
g6
(g7
(I0
tS'b'
tRp938
(I1
(tg10
I00
S');ws\x9bX+@'
tbsg11
F1
ssI457
(dp939
g5
g6
(g7
(I0
tS'b'
tRp940
(I1
(tg10
I00
S'\xbb\x14\x84\x9c\x94!\x1e@'
tbsg11
F1
ssI458
(dp941
g5
g6
(g7
(I0
tS'b'
tRp942
(I1
(tg10
I00
S'\xad\xbc\x16I\x0f?"@'
tbsg11
F1
ssI459
(dp943
g5
g6
(g7
(I0
tS'b'
tRp944
(I1
(tg10
I00
S'\xda\xbd\xd4\xcb\xfe\x14&@'
tbsg11
F1
ssI460
(dp945
g5
g6
(g7
(I0
tS'b'
tRp946
(I1
(tg10
I00
S'\xdfx\x85%G:)@'
tbsg11
F1
ssI461
(dp947
g5
g6
(g7
(I0
tS'b'
tRp948
(I1
(tg10
I00
S'!J\x10"\xd3:&@'
tbsg11
F1
ssI462
(dp949
g5
g6
(g7
(I0
tS'b'
tRp950
(I1
(tg10
I00
S'\x87J\xdc\x8e\xec\xf7&@'
tbsg11
F1
ssI463
(dp951
g5
g6
(g7
(I0
tS'b'
tRp952
(I1
(tg10
I00
S"\xff\xd9\x91\xfcr\x18'@"
tbsg11
F1
ssI464
(dp953
g5
g6
(g7
(I0
tS'b'
tRp954
(I1
(tg10
I00
S'\xb6\x92\x0evz\xab%@'
tbsg11
F1
ssI465
(dp955
g5
g6
(g7
(I0
tS'b'
tRp956
(I1
(tg10
I00
S'A7\xf5\xdcI\x1a.@'
tbsg11
F1
ssI466
(dp957
g5
g6
(g7
(I0
tS'b'
tRp958
(I1
(tg10
I00
S'r\xaf\x17\xcd\xc5\xcd!@'
tbsg11
F1
ssI467
(dp959
g5
g6
(g7
(I0
tS'b'
tRp960
(I1
(tg10
I00
S'C[q\xd18\xa3+@'
tbsg11
F1
ssI468
(dp961
g5
g6
(g7
(I0
tS'b'
tRp962
(I1
(tg10
I00
S'\xb3\\o\x0f\x8f\xd3\x1d@'
tbsg11
F1
ssI469
(dp963
g5
g6
(g7
(I0
tS'b'
tRp964
(I1
(tg10
I00
S'\x0c\xb0\xd8\xbeM\x06"@'
tbsg11
F1
ssI470
(dp965
g5
g6
(g7
(I0
tS'b'
tRp966
(I1
(tg10
I00
S"\x8c,\xa5\x17\\'&@"
tbsg11
F1
ssI471
(dp967
g5
g6
(g7
(I0
tS'b'
tRp968
(I1
(tg10
I00
S'2J\xd2\x96\xaeY&@'
tbsg11
F1
ssI472
(dp969
g5
g6
(g7
(I0
tS'b'
tRp970
(I1
(tg10
I00
S'\xd0{\xd3\xd4{\xbd#@'
tbsg11
F1
ssI473
(dp971
g5
g6
(g7
(I0
tS'b'
tRp972
(I1
(tg10
I00
S'\xa0\x1dx6\xd6\xee&@'
tbsg11
F1
ssI474
(dp973
g5
g6
(g7
(I0
tS'b'
tRp974
(I1
(tg10
I00
S'4U\xa3\xc5P\x88&@'
tbsg11
F1
ssI475
(dp975
g5
g6
(g7
(I0
tS'b'
tRp976
(I1
(tg10
I00
S'\x97\x9a\x91\x04?s&@'
tbsg11
F1
ssI476
(dp977
g5
g6
(g7
(I0
tS'b'
tRp978
(I1
(tg10
I00
S'<\xe0;|\x93\x98,@'
tbsg11
F1
ssI477
(dp979
g5
g6
(g7
(I0
tS'b'
tRp980
(I1
(tg10
I00
S'\xf7\xb1\x16\xbc\xe8\xc2 @'
tbsg11
F1
ssI478
(dp981
g5
g6
(g7
(I0
tS'b'
tRp982
(I1
(tg10
I00
S'\x05\xc1s\xee\x81\x1a+@'
tbsg11
F1
ssI479
(dp983
g5
g6
(g7
(I0
tS'b'
tRp984
(I1
(tg10
I00
S')\xedx\xc8(\xfa\x1c@'
tbsg11
F1
ssI480
(dp985
g5
g6
(g7
(I0
tS'b'
tRp986
(I1
(tg10
I00
S'\x11D~\xd6j\r"@'
tbsg11
F1
ssI481
(dp987
g5
g6
(g7
(I0
tS'b'
tRp988
(I1
(tg10
I00
S'7\xc8\x95\xe1\x00\xb4&@'
tbsg11
F1
ssI482
(dp989
g5
g6
(g7
(I0
tS'b'
tRp990
(I1
(tg10
I00
S'\x97H\xf0\xa1\x9d\x8e$@'
tbsg11
F1
ssI483
(dp991
g5
g6
(g7
(I0
tS'b'
tRp992
(I1
(tg10
I00
S'\xc8\xad\xc05\xa7E"@'
tbsg11
F1
ssI484
(dp993
g5
g6
(g7
(I0
tS'b'
tRp994
(I1
(tg10
I00
S'k\xfe!\xeae\xed$@'
tbsg11
F1
ssI485
(dp995
g5
g6
(g7
(I0
tS'b'
tRp996
(I1
(tg10
I00
S'\x88\x10f\x99\xa7\xb9%@'
tbsg11
F1
ssI486
(dp997
g5
g6
(g7
(I0
tS'b'
tRp998
(I1
(tg10
I00
S'l\x83*9"s\'@'
tbsg11
F1
ssI487
(dp999
g5
g6
(g7
(I0
tS'b'
tRp1000
(I1
(tg10
I00
S'b\x9d+\x0c\xa4\xf0*@'
tbsg11
F1
ssI488
(dp1001
g5
g6
(g7
(I0
tS'b'
tRp1002
(I1
(tg10
I00
S'\xb3\xac\x11T\xabI @'
tbsg11
F1
ssI489
(dp1003
g5
g6
(g7
(I0
tS'b'
tRp1004
(I1
(tg10
I00
S'\xa7\x89+5h\t)@'
tbsg11
F1
ssI490
(dp1005
g5
g6
(g7
(I0
tS'b'
tRp1006
(I1
(tg10
I00
S'\xdd\xa8Y\x02\xc3V\x1c@'
tbsg11
F1
ssI491
(dp1007
g5
g6
(g7
(I0
tS'b'
tRp1008
(I1
(tg10
I00
S'Z\xe7-_\xbaY"@'
tbsg11
F1
ssI492
(dp1009
g5
g6
(g7
(I0
tS'b'
tRp1010
(I1
(tg10
I00
S'M\x14b\xdc\xde\t(@'
tbsg11
F1
ssI493
(dp1011
g5
g6
(g7
(I0
tS'b'
tRp1012
(I1
(tg10
I00
S'eb\x84\xb95L#@'
tbsg11
F1
ssI494
(dp1013
g5
g6
(g7
(I0
tS'b'
tRp1014
(I1
(tg10
I00
S'\xa6\xa4\x1a\x13\x1e\x14"@'
tbsg11
F1
ssI495
(dp1015
g5
g6
(g7
(I0
tS'b'
tRp1016
(I1
(tg10
I00
S'\x01\x03o\xa9\x95~#@'
tbsg11
F1
ssI496
(dp1017
g5
g6
(g7
(I0
tS'b'
tRp1018
(I1
(tg10
I00
S'\x9a\xe2\t\xb7\x05w$@'
tbsg11
F1
ssI497
(dp1019
g5
g6
(g7
(I0
tS'b'
tRp1020
(I1
(tg10
I00
S"\x08\x97V\x869\xe6'@"
tbsg11
F1
ssI498
(dp1021
g5
g6
(g7
(I0
tS'b'
tRp1022
(I1
(tg10
I00
S'\n\xbdUg\xbc\x92)@'
tbsg11
F1
ssI499
(dp1023
g5
g6
(g7
(I0
tS'b'
tRp1024
(I1
(tg10
I00
S'\xee\xb4\x1a>\x9eb @'
tbsg11
F1
ssI500
(dp1025
g5
g6
(g7
(I0
tS'b'
tRp1026
(I1
(tg10
I00
S"\xaa\xe3\xf1\x855\xa7'@"
tbsg11
F1
sg210
(lp1027
S'D:\\users\\chxing\\aaai2017Exp\\JPdata\\r50maxcount.q1min10max.2-20.1-20\\s2sa_topicAwareGeneration\\/params.npz.500'
p1028
aS'D:\\users\\chxing\\aaai2017Exp\\JPdata\\r50maxcount.q1min10max.2-20.1-20\\s2sa_topicAwareGeneration\\/iterations_state.pkl.500'
p1029
aS'D:\\users\\chxing\\aaai2017Exp\\JPdata\\r50maxcount.q1min10max.2-20.1-20\\s2sa_topicAwareGeneration\\/log.500'
p1030
assI501
(dp1031
g5
g6
(g7
(I0
tS'b'
tRp1032
(I1
(tg10
I00
S'\xf08\x1a\xec*\xa4\x1b@'
tbsg11
F1
ssI502
(dp1033
g5
g6
(g7
(I0
tS'b'
tRp1034
(I1
(tg10
I00
S'g\xbb\xdc4\x05\x8f"@'
tbsg11
F1
ssI503
(dp1035
g5
g6
(g7
(I0
tS'b'
tRp1036
(I1
(tg10
I00
S'w\xb8\xfa\x1b\x9c\x94)@'
tbsg11
F1
ssI504
(dp1037
g5
g6
(g7
(I0
tS'b'
tRp1038
(I1
(tg10
I00
S'\xd1e*:\xcbd"@'
tbsg11
F1
ssI505
(dp1039
g5
g6
(g7
(I0
tS'b'
tRp1040
(I1
(tg10
I00
S'\x8f\xf3k=\x80\xf9!@'
tbsg11
F1
ssI506
(dp1041
g5
g6
(g7
(I0
tS'b'
tRp1042
(I1
(tg10
I00
S'\rbzA\xa7}"@'
tbsg11
F1
ssI507
(dp1043
g5
g6
(g7
(I0
tS'b'
tRp1044
(I1
(tg10
I00
S'\xfe\xcd\xaa\xf4J\xc3#@'
tbsg11
F1
ssI508
(dp1045
g5
g6
(g7
(I0
tS'b'
tRp1046
(I1
(tg10
I00
S"\x00n>\xc2N\xb4'@"
tbsg11
F1
ssI509
(dp1047
g5
g6
(g7
(I0
tS'b'
tRp1048
(I1
(tg10
I00
S'\xe8\xe5\xa7\xcb\x7f\xe3(@'
tbsg11
F1
ssI510
(dp1049
g5
g6
(g7
(I0
tS'b'
tRp1050
(I1
(tg10
I00
S'#}\x129\xab\x94 @'
tbsg11
F1
ssI511
(dp1051
g5
g6
(g7
(I0
tS'b'
tRp1052
(I1
(tg10
I00
S"\x0f\xb5+#\xf7N'@"
tbsg11
F1
ssI512
(dp1053
g5
g6
(g7
(I0
tS'b'
tRp1054
(I1
(tg10
I00
S'?\x08\xe5>\xb3\x1f\x1b@'
tbsg11
F1
ssI513
(dp1055
g5
g6
(g7
(I0
tS'b'
tRp1056
(I1
(tg10
I00
S'45k\xb0vh"@'
tbsg11
F1
ssI514
(dp1057
g5
g6
(g7
(I0
tS'b'
tRp1058
(I1
(tg10
I00
S'\xa0\xfe%\xfb\xa2%*@'
tbsg11
F1
ssI515
(dp1059
g5
g6
(g7
(I0
tS'b'
tRp1060
(I1
(tg10
I00
S'e\xc79!a\xb3!@'
tbsg11
F1
ssI516
(dp1061
g5
g6
(g7
(I0
tS'b'
tRp1062
(I1
(tg10
I00
S'\xb6\xd5\x14\xcd\x81\x8c!@'
tbsg11
F1
ssI517
(dp1063
g5
g6
(g7
(I0
tS'b'
tRp1064
(I1
(tg10
I00
S"K\xf1\x83'\xa2\xd0!@"
tbsg11
F1
ssI518
(dp1065
g5
g6
(g7
(I0
tS'b'
tRp1066
(I1
(tg10
I00
S'~V\xf6MN\\#@'
tbsg11
F1
ssI519
(dp1067
g5
g6
(g7
(I0
tS'b'
tRp1068
(I1
(tg10
I00
S"\xe2\x04\x15\xd8<-'@"
tbsg11
F1
ssI520
(dp1069
g5
g6
(g7
(I0
tS'b'
tRp1070
(I1
(tg10
I00
S'\xae\xc2\x9bj\x94\x94(@'
tbsg11
F1
ssI521
(dp1071
g5
g6
(g7
(I0
tS'b'
tRp1072
(I1
(tg10
I00
S':\x8fj\xf9\xa9\\ @'
tbsg11
F1
ssI522
(dp1073
g5
g6
(g7
(I0
tS'b'
tRp1074
(I1
(tg10
I00
S'\xb3qG\x84\x1fx&@'
tbsg11
F1
ssI523
(dp1075
g5
g6
(g7
(I0
tS'b'
tRp1076
(I1
(tg10
I00
S'`=\x8e^O\xb5\x1a@'
tbsg11
F1
ssI524
(dp1077
g5
g6
(g7
(I0
tS'b'
tRp1078
(I1
(tg10
I00
S'\xf0\xb9\x89ct|"@'
tbsg11
F1
ssI525
(dp1079
g5
g6
(g7
(I0
tS'b'
tRp1080
(I1
(tg10
I00
S'\xdc*\xd2,\n\xb2*@'
tbsg11
F1
ssI526
(dp1081
g5
g6
(g7
(I0
tS'b'
tRp1082
(I1
(tg10
I00
S"\xd8k'\x80e\xff @"
tbsg11
F1
ssI527
(dp1083
g5
g6
(g7
(I0
tS'b'
tRp1084
(I1
(tg10
I00
S'\xb7\x88\xb4\x041\\!@'
tbsg11
F1
ssI528
(dp1085
g5
g6
(g7
(I0
tS'b'
tRp1086
(I1
(tg10
I00
S'-c\xe1t\x0b\x15!@'
tbsg11
F1
ssI529
(dp1087
g5
g6
(g7
(I0
tS'b'
tRp1088
(I1
(tg10
I00
S'\xbbM0\x95\xe7\x92"@'
tbsg11
F1
ssI530
(dp1089
g5
g6
(g7
(I0
tS'b'
tRp1090
(I1
(tg10
I00
S'\tI\xf1\x01}\xd9&@'
tbsg11
F1
ssI531
(dp1091
g5
g6
(g7
(I0
tS'b'
tRp1092
(I1
(tg10
I00
S'W\xc0g\xd2av(@'
tbsg11
F1
ssI532
(dp1093
g5
g6
(g7
(I0
tS'b'
tRp1094
(I1
(tg10
I00
S']\xbde\x8bI\xb5 @'
tbsg11
F1
ssI533
(dp1095
g5
g6
(g7
(I0
tS'b'
tRp1096
(I1
(tg10
I00
S'J6G\xc8p\xa3&@'
tbsg11
F1
ssI534
(dp1097
g5
g6
(g7
(I0
tS'b'
tRp1098
(I1
(tg10
I00
S'_\xa3\x1cD\xda\x03\x1a@'
tbsg11
F1
ssI535
(dp1099
g5
g6
(g7
(I0
tS'b'
tRp1100
(I1
(tg10
I00
S'\rK\\\x06\xb5\xe2!@'
tbsg11
F1
ssI536
(dp1101
g5
g6
(g7
(I0
tS'b'
tRp1102
(I1
(tg10
I00
S'W\x14\xc9\x86\x7f0*@'
tbsg11
F1
ssI537
(dp1103
g5
g6
(g7
(I0
tS'b'
tRp1104
(I1
(tg10
I00
S'\xfcN\r]\xd1\xad @'
tbsg11
F1
ssI538
(dp1105
g5
g6
(g7
(I0
tS'b'
tRp1106
(I1
(tg10
I00
S'\xd14\xc7\xc4J\xfa @'
tbsg11
F1
ssI539
(dp1107
g5
g6
(g7
(I0
tS'b'
tRp1108
(I1
(tg10
I00
S'CF\x16\xb0\x0c\x91 @'
tbsg11
F1
ssI540
(dp1109
g5
g6
(g7
(I0
tS'b'
tRp1110
(I1
(tg10
I00
S'n\xc7\xa7\x07\xda\xed!@'
tbsg11
F1
ssI541
(dp1111
g5
g6
(g7
(I0
tS'b'
tRp1112
(I1
(tg10
I00
S'1\x88\x19R\x1fO&@'
tbsg11
F1
ssI542
(dp1113
g5
g6
(g7
(I0
tS'b'
tRp1114
(I1
(tg10
I00
S'\x190\x9a\xb65\x0e(@'
tbsg11
F1
ssI543
(dp1115
g5
g6
(g7
(I0
tS'b'
tRp1116
(I1
(tg10
I00
S'g\xe6J\xbb\xa1\x87 @'
tbsg11
F1
ssI544
(dp1117
g5
g6
(g7
(I0
tS'b'
tRp1118
(I1
(tg10
I00
S'\xf8^\xa6\xa9\xca}%@'
tbsg11
F1
ssI545
(dp1119
g5
g6
(g7
(I0
tS'b'
tRp1120
(I1
(tg10
I00
S'\x11\xb3\xee\x17\x0fs\x19@'
tbsg11
F1
ssI546
(dp1121
g5
g6
(g7
(I0
tS'b'
tRp1122
(I1
(tg10
I00
S'T\x01$\xcb\xd4:"@'
tbsg11
F1
ssI547
(dp1123
g5
g6
(g7
(I0
tS'b'
tRp1124
(I1
(tg10
I00
S'\x0b(ED\xde\xcc*@'
tbsg11
F1
ssI548
(dp1125
g5
g6
(g7
(I0
tS'b'
tRp1126
(I1
(tg10
I00
S'\xa1\xed\t\x90\xae\n @'
tbsg11
F1
ssI549
(dp1127
g5
g6
(g7
(I0
tS'b'
tRp1128
(I1
(tg10
I00
S'Ij\xf5\xf6\xd0\x80 @'
tbsg11
F1
ssI550
(dp1129
g5
g6
(g7
(I0
tS'b'
tRp1130
(I1
(tg10
I00
S'\xc9\x8b+\xfa\xcb  @'
tbsg11
F1
ssI551
(dp1131
g5
g6
(g7
(I0
tS'b'
tRp1132
(I1
(tg10
I00
S'\x97\xc4\xddD1m!@'
tbsg11
F1
ssI552
(dp1133
g5
g6
(g7
(I0
tS'b'
tRp1134
(I1
(tg10
I00
S'\xd0\xdba\xd2\xb7\xd5%@'
tbsg11
F1
ssI553
(dp1135
g5
g6
(g7
(I0
tS'b'
tRp1136
(I1
(tg10
I00
S"5\xcc\x03\xa0[\xb0'@"
tbsg11
F1
ssI554
(dp1137
g5
g6
(g7
(I0
tS'b'
tRp1138
(I1
(tg10
I00
S'\x03E\xedp^3 @'
tbsg11
F1
ssI555
(dp1139
g5
g6
(g7
(I0
tS'b'
tRp1140
(I1
(tg10
I00
S'\x88\xee\\\xe6\xb3\x88$@'
tbsg11
F1
ssI556
(dp1141
g5
g6
(g7
(I0
tS'b'
tRp1142
(I1
(tg10
I00
S'\xc7\xc9\x0e\xd5\xf5\xd6\x18@'
tbsg11
F1
ssI557
(dp1143
g5
g6
(g7
(I0
tS'b'
tRp1144
(I1
(tg10
I00
S'D\x1e\x95\xa60\xa8"@'
tbsg11
F1
ssI558
(dp1145
g5
g6
(g7
(I0
tS'b'
tRp1146
(I1
(tg10
I00
S'G\xcbb\xd2\xf1\x00+@'
tbsg11
F1
ssI559
(dp1147
g5
g6
(g7
(I0
tS'b'
tRp1148
(I1
(tg10
I00
S'\xa7\xac\xec\xff[\xff\x1e@'
tbsg11
F1
ssI560
(dp1149
g5
g6
(g7
(I0
tS'b'
tRp1150
(I1
(tg10
I00
S'\xa6\xe6\x895\xa5. @'
tbsg11
F1
ssI561
(dp1151
g5
g6
(g7
(I0
tS'b'
tRp1152
(I1
(tg10
I00
S'\x92\x90r]\xe8\xec\x1e@'
tbsg11
F1
ssI562
(dp1153
g5
g6
(g7
(I0
tS'b'
tRp1154
(I1
(tg10
I00
S"\x17`\xb9M'\xcc @"
tbsg11
F1
ssI563
(dp1155
g5
g6
(g7
(I0
tS'b'
tRp1156
(I1
(tg10
I00
S"D\xd9\xee\x0b'u%@"
tbsg11
F1
ssI564
(dp1157
g5
g6
(g7
(I0
tS'b'
tRp1158
(I1
(tg10
I00
S"C\x1c1 \xec\xde'@"
tbsg11
F1
ssI565
(dp1159
g5
g6
(g7
(I0
tS'b'
tRp1160
(I1
(tg10
I00
S'\xa5\xff\x0f"\xdaQ @'
tbsg11
F1
ssI566
(dp1161
g5
g6
(g7
(I0
tS'b'
tRp1162
(I1
(tg10
I00
S'\xf1\xe3h\xb3\xe9\xfc#@'
tbsg11
F1
ssI567
(dp1163
g5
g6
(g7
(I0
tS'b'
tRp1164
(I1
(tg10
I00
S'?\x03j\x84\xd9r\x18@'
tbsg11
F1
ssI568
(dp1165
g5
g6
(g7
(I0
tS'b'
tRp1166
(I1
(tg10
I00
S'\x89*\x1c\xc2Dp"@'
tbsg11
F1
ssI569
(dp1167
g5
g6
(g7
(I0
tS'b'
tRp1168
(I1
(tg10
I00
S'\x80><\x97\x05m*@'
tbsg11
F1
ssI570
(dp1169
g5
g6
(g7
(I0
tS'b'
tRp1170
(I1
(tg10
I00
S'\xc3\x9b\xea%V\x16\x1e@'
tbsg11
F1
ssI571
(dp1171
g5
g6
(g7
(I0
tS'b'
tRp1172
(I1
(tg10
I00
S'}\xee|+f\xc1\x1f@'
tbsg11
F1
ssI572
(dp1173
g5
g6
(g7
(I0
tS'b'
tRp1174
(I1
(tg10
I00
S'\xc8\xe3\x8f:I\xd3\x1d@'
tbsg11
F1
ssI573
(dp1175
g5
g6
(g7
(I0
tS'b'
tRp1176
(I1
(tg10
I00
S'\xbfc\x9e\xc6\xe2, @'
tbsg11
F1
ssI574
(dp1177
g5
g6
(g7
(I0
tS'b'
tRp1178
(I1
(tg10
I00
S'\xff\xf4\x82\xff\xc5\xde$@'
tbsg11
F1
ssI575
(dp1179
g5
g6
(g7
(I0
tS'b'
tRp1180
(I1
(tg10
I00
S'\xf3\x94\xcaz\xfa\n(@'
tbsg11
F1
ssI576
(dp1181
g5
g6
(g7
(I0
tS'b'
tRp1182
(I1
(tg10
I00
S'5-I\x14h1 @'
tbsg11
F1
ssI577
(dp1183
g5
g6
(g7
(I0
tS'b'
tRp1184
(I1
(tg10
I00
S'#\x11\xd5\xf17\x13#@'
tbsg11
F1
ssI578
(dp1185
g5
g6
(g7
(I0
tS'b'
tRp1186
(I1
(tg10
I00
S'\xecYw\xa5\xdd\xe0\x17@'
tbsg11
F1
ssI579
(dp1187
g5
g6
(g7
(I0
tS'b'
tRp1188
(I1
(tg10
I00
S'\x0f\x1cy\xcf\xb3\x7f"@'
tbsg11
F1
ssI580
(dp1189
g5
g6
(g7
(I0
tS'b'
tRp1190
(I1
(tg10
I00
S'\xd3\x1e\xfa\x08\xc4\xe3)@'
tbsg11
F1
ssI581
(dp1191
g5
g6
(g7
(I0
tS'b'
tRp1192
(I1
(tg10
I00
S'\xbc$\xb0.5d\x1d@'
tbsg11
F1
ssI582
(dp1193
g5
g6
(g7
(I0
tS'b'
tRp1194
(I1
(tg10
I00
S'\nP\x98\xd1E8\x1f@'
tbsg11
F1
ssI583
(dp1195
g5
g6
(g7
(I0
tS'b'
tRp1196
(I1
(tg10
I00
S'\xdf\x91\x15\xf0\x1f\xad\x1c@'
tbsg11
F1
ssI584
(dp1197
g5
g6
(g7
(I0
tS'b'
tRp1198
(I1
(tg10
I00
S'\xc0\x9d\xb5w\xc4%\x1f@'
tbsg11
F1
ssI585
(dp1199
g5
g6
(g7
(I0
tS'b'
tRp1200
(I1
(tg10
I00
S'\xe1\xfclT\x96r$@'
tbsg11
F1
ssI586
(dp1201
g5
g6
(g7
(I0
tS'b'
tRp1202
(I1
(tg10
I00
S'\xf7y\xbf\x8a\x16Z(@'
tbsg11
F1
ssI587
(dp1203
g5
g6
(g7
(I0
tS'b'
tRp1204
(I1
(tg10
I00
S'\xa2>\x01\xa8\xc6< @'
tbsg11
F1
ssI588
(dp1205
g5
g6
(g7
(I0
tS'b'
tRp1206
(I1
(tg10
I00
S'\xc37\x90\xea\x83<"@'
tbsg11
F1
ssI589
(dp1207
g5
g6
(g7
(I0
tS'b'
tRp1208
(I1
(tg10
I00
S'/\x92\x93\x92DY\x17@'
tbsg11
F1
ssI590
(dp1209
g5
g6
(g7
(I0
tS'b'
tRp1210
(I1
(tg10
I00
S'\x92\x95\x9b\x8f\xaee"@'
tbsg11
F1
ssI591
(dp1211
g5
g6
(g7
(I0
tS'b'
tRp1212
(I1
(tg10
I00
S'\xfe\xac\x82\xf0\xefD)@'
tbsg11
F1
ssI592
(dp1213
g5
g6
(g7
(I0
tS'b'
tRp1214
(I1
(tg10
I00
S'\xd7\xec\x81r`\xa2\x1c@'
tbsg11
F1
ssI593
(dp1215
g5
g6
(g7
(I0
tS'b'
tRp1216
(I1
(tg10
I00
S'e\x1a\x86_P\xbe\x1e@'
tbsg11
F1
ssI594
(dp1217
g5
g6
(g7
(I0
tS'b'
tRp1218
(I1
(tg10
I00
S'\xdd\xce]\xa6\xbeS\x1b@'
tbsg11
F1
ssI595
(dp1219
g5
g6
(g7
(I0
tS'b'
tRp1220
(I1
(tg10
I00
S'\xc8\x9eo\x8f\x01@\x1e@'
tbsg11
F1
ssI596
(dp1221
g5
g6
(g7
(I0
tS'b'
tRp1222
(I1
(tg10
I00
S'\x91\x9c\xc0\x83\xbf\xf6#@'
tbsg11
F1
ssI597
(dp1223
g5
g6
(g7
(I0
tS'b'
tRp1224
(I1
(tg10
I00
S'\xf0)\x86KE\x17)@'
tbsg11
F1
ssI598
(dp1225
g5
g6
(g7
(I0
tS'b'
tRp1226
(I1
(tg10
I00
S'w\xdf$\xa7\xb1\xd0\x1f@'
tbsg11
F1
ssI599
(dp1227
g5
g6
(g7
(I0
tS'b'
tRp1228
(I1
(tg10
I00
S'\x0f\xdf\xfa\x81\x1dR!@'
tbsg11
F1
ssI600
(dp1229
g5
g6
(g7
(I0
tS'b'
tRp1230
(I1
(tg10
I00
S'u1\x99\x1c\x14+\x17@'
tbsg11
F1
sg210
(lp1231
S'D:\\users\\chxing\\aaai2017Exp\\JPdata\\r50maxcount.q1min10max.2-20.1-20\\s2sa_topicAwareGeneration\\/params.npz.600'
p1232
aS'D:\\users\\chxing\\aaai2017Exp\\JPdata\\r50maxcount.q1min10max.2-20.1-20\\s2sa_topicAwareGeneration\\/iterations_state.pkl.600'
p1233
aS'D:\\users\\chxing\\aaai2017Exp\\JPdata\\r50maxcount.q1min10max.2-20.1-20\\s2sa_topicAwareGeneration\\/log.600'
p1234
assI601
(dp1235
g5
g6
(g7
(I0
tS'b'
tRp1236
(I1
(tg10
I00
S'\x96Y\tc\xe2\xe4"@'
tbsg11
F1
ssI602
(dp1237
g5
g6
(g7
(I0
tS'b'
tRp1238
(I1
(tg10
I00
S'-z\x8f]\x9c%(@'
tbsg11
F1
ssI603
(dp1239
g5
g6
(g7
(I0
tS'b'
tRp1240
(I1
(tg10
I00
S'\xd4Ww\xde\x93\xc9\x1b@'
tbsg11
F1
ssI604
(dp1241
g5
g6
(g7
(I0
tS'b'
tRp1242
(I1
(tg10
I00
S'\x93\xebm\xca\x84H\x1e@'
tbsg11
F1
ssI605
(dp1243
g5
g6
(g7
(I0
tS'b'
tRp1244
(I1
(tg10
I00
S">\xd4\xd6\x94\xa4'\x1a@"
tbsg11
F1
ssI606
(dp1245
g5
g6
(g7
(I0
tS'b'
tRp1246
(I1
(tg10
I00
S'j\xe0})`\xad\x1d@'
tbsg11
F1
ssI607
(dp1247
g5
g6
(g7
(I0
tS'b'
tRp1248
(I1
(tg10
I00
S'\x8bF6o\x1f\x87#@'
tbsg11
F1
ssI608
(dp1249
g5
g6
(g7
(I0
tS'b'
tRp1250
(I1
(tg10
I00
S'\xb1P\x13\xdf:X)@'
tbsg11
F1
ssI609
(dp1251
g5
g6
(g7
(I0
tS'b'
tRp1252
(I1
(tg10
I00
S'\x93\xf7\x9b\x95\x87\xa4\x1e@'
tbsg11
F1
ssI610
(dp1253
g5
g6
(g7
(I0
tS'b'
tRp1254
(I1
(tg10
I00
S'so\xe2kB\x82 @'
tbsg11
F1
ssI611
(dp1255
g5
g6
(g7
(I0
tS'b'
tRp1256
(I1
(tg10
I00
S'\xe0\xb8n6\x0e5\x17@'
tbsg11
F1
ssI612
(dp1257
g5
g6
(g7
(I0
tS'b'
tRp1258
(I1
(tg10
I00
S'8D\xf1\xc6\xfb\xc4#@'
tbsg11
F1
ssI613
(dp1259
g5
g6
(g7
(I0
tS'b'
tRp1260
(I1
(tg10
I00
S'\rc>\xa0[y&@'
tbsg11
F1
ssI614
(dp1261
g5
g6
(g7
(I0
tS'b'
tRp1262
(I1
(tg10
I00
S'\x9dW\xf3\x97=)\x1b@'
tbsg11
F1
ssI615
(dp1263
g5
g6
(g7
(I0
tS'b'
tRp1264
(I1
(tg10
I00
S'N\xc1j\xd7}\x8e\x1d@'
tbsg11
F1
ssI616
(dp1265
g5
g6
(g7
(I0
tS'b'
tRp1266
(I1
(tg10
I00
S'\x95\xa8\xab]?N\x19@'
tbsg11
F1
ssI617
(dp1267
g5
g6
(g7
(I0
tS'b'
tRp1268
(I1
(tg10
I00
S'v\xa8\xd4\xb9\xb5*\x1d@'
tbsg11
F1
ssI618
(dp1269
g5
g6
(g7
(I0
tS'b'
tRp1270
(I1
(tg10
I00
S'\xfc\xe7,\xc97\xf4"@'
tbsg11
F1
ssI619
(dp1271
g5
g6
(g7
(I0
tS'b'
tRp1272
(I1
(tg10
I00
S'?@b\x10\xb1\xb0(@'
tbsg11
F1
ssI620
(dp1273
g5
g6
(g7
(I0
tS'b'
tRp1274
(I1
(tg10
I00
S'A\xca\x97\x9b\xdd\x85\x1d@'
tbsg11
F1
ssI621
(dp1275
g5
g6
(g7
(I0
tS'b'
tRp1276
(I1
(tg10
I00
S'\xe9\xe9T!\xfc\xb6\x1f@'
tbsg11
F1
ssI622
(dp1277
g5
g6
(g7
(I0
tS'b'
tRp1278
(I1
(tg10
I00
S'\xc10\xc5\x93\xba?\x18@'
tbsg11
F1
ssI623
(dp1279
g5
g6
(g7
(I0
tS'b'
tRp1280
(I1
(tg10
I00
S'\xa6+\x02\xf0(\xd4#@'
tbsg11
F1
ssI624
(dp1281
g5
g6
(g7
(I0
tS'b'
tRp1282
(I1
(tg10
I00
S'\x08t\xc5\xce\xee\xd0$@'
tbsg11
F1
ssI625
(dp1283
g5
g6
(g7
(I0
tS'b'
tRp1284
(I1
(tg10
I00
S'}W\x1a7\x04\x8c\x1a@'
tbsg11
F1
ssI626
(dp1285
g5
g6
(g7
(I0
tS'b'
tRp1286
(I1
(tg10
I00
S'\xbe\x98\x95\xcf\xc1\\\x1d@'
tbsg11
F1
ssI627
(dp1287
g5
g6
(g7
(I0
tS'b'
tRp1288
(I1
(tg10
I00
S'\x03\x0c\x81=)?\x18@'
tbsg11
F1
ssI628
(dp1289
g5
g6
(g7
(I0
tS'b'
tRp1290
(I1
(tg10
I00
S'\x18\xf3\x10N\x18\x14\x1d@'
tbsg11
F1
ssI629
(dp1291
g5
g6
(g7
(I0
tS'b'
tRp1292
(I1
(tg10
I00
S'\xbds,\x00\xbdL"@'
tbsg11
F1
ssI630
(dp1293
g5
g6
(g7
(I0
tS'b'
tRp1294
(I1
(tg10
I00
S'\xac-\xba$\xcb\x03(@'
tbsg11
F1
ssI631
(dp1295
g5
g6
(g7
(I0
tS'b'
tRp1296
(I1
(tg10
I00
S'\xad\xe9\x17nb\x85\x1c@'
tbsg11
F1
ssI632
(dp1297
g5
g6
(g7
(I0
tS'b'
tRp1298
(I1
(tg10
I00
S'\x97s\x0e}I\xfa\x1e@'
tbsg11
F1
ssI633
(dp1299
g5
g6
(g7
(I0
tS'b'
tRp1300
(I1
(tg10
I00
S'\xc3b\x0e;\xe7\x90\x1a@'
tbsg11
F1
ssI634
(dp1301
g5
g6
(g7
(I0
tS'b'
tRp1302
(I1
(tg10
I00
S'3\x0f\x8c\x04~z"@'
tbsg11
F1
ssI635
(dp1303
g5
g6
(g7
(I0
tS'b'
tRp1304
(I1
(tg10
I00
S'\xf9\xe5-\xca\x8f\xcd#@'
tbsg11
F1
ssI636
(dp1305
g5
g6
(g7
(I0
tS'b'
tRp1306
(I1
(tg10
I00
S'\xe2\xc1@\xeb\x9f\xfa\x19@'
tbsg11
F1
ssI637
(dp1307
g5
g6
(g7
(I0
tS'b'
tRp1308
(I1
(tg10
I00
S'\x99\xed\xa6\xac\xc0Q\x1d@'
tbsg11
F1
ssI638
(dp1309
g5
g6
(g7
(I0
tS'b'
tRp1310
(I1
(tg10
I00
S'\xbaM+\xb3\xdeS\x17@'
tbsg11
F1
ssI639
(dp1311
g5
g6
(g7
(I0
tS'b'
tRp1312
(I1
(tg10
I00
S'X\xf4(Hhc\x1d@'
tbsg11
F1
ssI640
(dp1313
g5
g6
(g7
(I0
tS'b'
tRp1314
(I1
(tg10
I00
S'A6Q\x8ay\x89!@'
tbsg11
F1
ssI641
(dp1315
g5
g6
(g7
(I0
tS'b'
tRp1316
(I1
(tg10
I00
S"\xa3r\xae\x98\xe7%'@"
tbsg11
F1
ssI642
(dp1317
g5
g6
(g7
(I0
tS'b'
tRp1318
(I1
(tg10
I00
S'\x1a\xab_9\x84\xa9\x1b@'
tbsg11
F1
ssI643
(dp1319
g5
g6
(g7
(I0
tS'b'
tRp1320
(I1
(tg10
I00
S'~O\x93\tJ\xea\x1e@'
tbsg11
F1
ssI644
(dp1321
g5
g6
(g7
(I0
tS'b'
tRp1322
(I1
(tg10
I00
S'\xb5t\xc3_\x95C\x1c@'
tbsg11
F1
ssI645
(dp1323
g5
g6
(g7
(I0
tS'b'
tRp1324
(I1
(tg10
I00
S'\x8d\xe6\x9fE\xdb\xb2 @'
tbsg11
F1
ssI646
(dp1325
g5
g6
(g7
(I0
tS'b'
tRp1326
(I1
(tg10
I00
S'\x03\x13\x13L\xdcT#@'
tbsg11
F1
ssI647
(dp1327
g5
g6
(g7
(I0
tS'b'
tRp1328
(I1
(tg10
I00
S'{\x8a\xcf6\xb6\x85\x19@'
tbsg11
F1
ssI648
(dp1329
g5
g6
(g7
(I0
tS'b'
tRp1330
(I1
(tg10
I00
S'>\xb9M\x92N\xee\x1c@'
tbsg11
F1
ssI649
(dp1331
g5
g6
(g7
(I0
tS'b'
tRp1332
(I1
(tg10
I00
S'\x16$\x16\x00\x84\x86\x16@'
tbsg11
F1
ssI650
(dp1333
g5
g6
(g7
(I0
tS'b'
tRp1334
(I1
(tg10
I00
S'q\xe2R\x84\x98\x8c\x1d@'
tbsg11
F1
ssI651
(dp1335
g5
g6
(g7
(I0
tS'b'
tRp1336
(I1
(tg10
I00
S'\xbb)9\x8e\x19\xbc @'
tbsg11
F1
ssI652
(dp1337
g5
g6
(g7
(I0
tS'b'
tRp1338
(I1
(tg10
I00
S'\x01\xec\xd7\x18\x99I&@'
tbsg11
F1
ssI653
(dp1339
g5
g6
(g7
(I0
tS'b'
tRp1340
(I1
(tg10
I00
S'\xcb\xcbW\xb6$\xf7\x1a@'
tbsg11
F1
ssI654
(dp1341
g5
g6
(g7
(I0
tS'b'
tRp1342
(I1
(tg10
I00
S'\xb4me\x8c!\xbd\x1e@'
tbsg11
F1
ssI655
(dp1343
g5
g6
(g7
(I0
tS'b'
tRp1344
(I1
(tg10
I00
S'\xef\xaa\x93\xdc\x8fe\x1d@'
tbsg11
F1
ssI656
(dp1345
g5
g6
(g7
(I0
tS'b'
tRp1346
(I1
(tg10
I00
S'\x18@R{\xf1\x8e\x1e@'
tbsg11
F1
ssI657
(dp1347
g5
g6
(g7
(I0
tS'b'
tRp1348
(I1
(tg10
I00
S'1\xfc\n&\x08\xd1"@'
tbsg11
F1
ssI658
(dp1349
g5
g6
(g7
(I0
tS'b'
tRp1350
(I1
(tg10
I00
S'3 \xe3\xce\xb8<\x19@'
tbsg11
F1
ssI659
(dp1351
g5
g6
(g7
(I0
tS'b'
tRp1352
(I1
(tg10
I00
S'b\xc0W\x0e\xb3b\x1c@'
tbsg11
F1
ssI660
(dp1353
g5
g6
(g7
(I0
tS'b'
tRp1354
(I1
(tg10
I00
S'\xa2\xa9\xa3\x9bM\xdd\x15@'
tbsg11
F1
ssI661
(dp1355
g5
g6
(g7
(I0
tS'b'
tRp1356
(I1
(tg10
I00
S'\x9e\x98\x02\xb2\xa2\xdf\x1d@'
tbsg11
F1
ssI662
(dp1357
g5
g6
(g7
(I0
tS'b'
tRp1358
(I1
(tg10
I00
S'\xa3a\xc5=\xa8\xbf\x1f@'
tbsg11
F1
ssI663
(dp1359
g5
g6
(g7
(I0
tS'b'
tRp1360
(I1
(tg10
I00
S',0\xa5\xc6\x7f\x8f%@'
tbsg11
F1
ssI664
(dp1361
g5
g6
(g7
(I0
tS'b'
tRp1362
(I1
(tg10
I00
S'\x83\x05\x9c\x1f\xc1E\x1a@'
tbsg11
F1
ssI665
(dp1363
g5
g6
(g7
(I0
tS'b'
tRp1364
(I1
(tg10
I00
S'u\xb2\xb1Y\xcb\x0c\x1f@'
tbsg11
F1
ssI666
(dp1365
g5
g6
(g7
(I0
tS'b'
tRp1366
(I1
(tg10
I00
S'\x1d\xcdex&\\\x1c@'
tbsg11
F1
ssI667
(dp1367
g5
g6
(g7
(I0
tS'b'
tRp1368
(I1
(tg10
I00
S'\x1c\xcf\xe9t\x17\xda\x1c@'
tbsg11
F1
ssI668
(dp1369
g5
g6
(g7
(I0
tS'b'
tRp1370
(I1
(tg10
I00
S'L\xe1\xd9A\xefU"@'
tbsg11
F1
ssI669
(dp1371
g5
g6
(g7
(I0
tS'b'
tRp1372
(I1
(tg10
I00
S'\xd9(\xa1\x0b\xff\xf3\x18@'
tbsg11
F1
ssI670
(dp1373
g5
g6
(g7
(I0
tS'b'
tRp1374
(I1
(tg10
I00
S'\xaf\xed0\x86\xa5\xb6\x1b@'
tbsg11
F1
ssI671
(dp1375
g5
g6
(g7
(I0
tS'b'
tRp1376
(I1
(tg10
I00
S'\x13\x91j\x0f\xbeg\x15@'
tbsg11
F1
ssI672
(dp1377
g5
g6
(g7
(I0
tS'b'
tRp1378
(I1
(tg10
I00
S'\xce\nY\x17\t\x98\x1d@'
tbsg11
F1
ssI673
(dp1379
g5
g6
(g7
(I0
tS'b'
tRp1380
(I1
(tg10
I00
S'\x1e\xf8\xf2\xffLA\x1e@'
tbsg11
F1
ssI674
(dp1381
g5
g6
(g7
(I0
tS'b'
tRp1382
(I1
(tg10
I00
S'k\x93T?\x0b\xc7$@'
tbsg11
F1
ssI675
(dp1383
g5
g6
(g7
(I0
tS'b'
tRp1384
(I1
(tg10
I00
S'\x9a[3g\xdb\xb1\x19@'
tbsg11
F1
ssI676
(dp1385
g5
g6
(g7
(I0
tS'b'
tRp1386
(I1
(tg10
I00
S'\x856\xfb\x13j\x05\x1f@'
tbsg11
F1
ssI677
(dp1387
g5
g6
(g7
(I0
tS'b'
tRp1388
(I1
(tg10
I00
S'\xa13\xd6?\x8dI\x1a@'
tbsg11
F1
ssI678
(dp1389
g5
g6
(g7
(I0
tS'b'
tRp1390
(I1
(tg10
I00
S'\xf8Um\x99\xcc\xde\x1b@'
tbsg11
F1
ssI679
(dp1391
g5
g6
(g7
(I0
tS'b'
tRp1392
(I1
(tg10
I00
S'\xb8\xb2\xa5\xac\x8a\xf2!@'
tbsg11
F1
ssI680
(dp1393
g5
g6
(g7
(I0
tS'b'
tRp1394
(I1
(tg10
I00
S'b=\xd8\xd7b\x85\x18@'
tbsg11
F1
ssI681
(dp1395
g5
g6
(g7
(I0
tS'b'
tRp1396
(I1
(tg10
I00
S'#\xefH\x87Q\x17\x1b@'
tbsg11
F1
ssI682
(dp1397
g5
g6
(g7
(I0
tS'b'
tRp1398
(I1
(tg10
I00
S'w\xabMg\xce\x0b\x15@'
tbsg11
F1
ssI683
(dp1399
g5
g6
(g7
(I0
tS'b'
tRp1400
(I1
(tg10
I00
S'\x04mt\x0b[\xc8\x1c@'
tbsg11
F1
ssI684
(dp1401
g5
g6
(g7
(I0
tS'b'
tRp1402
(I1
(tg10
I00
S'\x8e\xc7kz\x8d.\x1d@'
tbsg11
F1
ssI685
(dp1403
g5
g6
(g7
(I0
tS'b'
tRp1404
(I1
(tg10
I00
S'e\x0c\x00-V\x0c$@'
tbsg11
F1
ssI686
(dp1405
g5
g6
(g7
(I0
tS'b'
tRp1406
(I1
(tg10
I00
S'\xdb\xd9\xf9\xfe\xf3\x0f\x19@'
tbsg11
F1
ssI687
(dp1407
g5
g6
(g7
(I0
tS'b'
tRp1408
(I1
(tg10
I00
S'Jkp\x08\xe5\xde\x1e@'
tbsg11
F1
ssI688
(dp1409
g5
g6
(g7
(I0
tS'b'
tRp1410
(I1
(tg10
I00
S'\xf6l\xbf\xe5\xdaX\x18@'
tbsg11
F1
ssI689
(dp1411
g5
g6
(g7
(I0
tS'b'
tRp1412
(I1
(tg10
I00
S'pd\xbc\x92\x94\x0c\x1b@'
tbsg11
F1
ssI690
(dp1413
g5
g6
(g7
(I0
tS'b'
tRp1414
(I1
(tg10
I00
S'\xc5\xe1\xc3\x88C\x92!@'
tbsg11
F1
ssI691
(dp1415
g5
g6
(g7
(I0
tS'b'
tRp1416
(I1
(tg10
I00
S'\x89\x1dy\xfe\xa4\x06\x18@'
tbsg11
F1
ssI692
(dp1417
g5
g6
(g7
(I0
tS'b'
tRp1418
(I1
(tg10
I00
S's4\x97)\x00~\x1a@'
tbsg11
F1
ssI693
(dp1419
g5
g6
(g7
(I0
tS'b'
tRp1420
(I1
(tg10
I00
S'H\x80+s\x03\xd7\x14@'
tbsg11
F1
ssI694
(dp1421
g5
g6
(g7
(I0
tS'b'
tRp1422
(I1
(tg10
I00
S'\xe0\xddkg\xbf\x90\x1b@'
tbsg11
F1
ssI695
(dp1423
g5
g6
(g7
(I0
tS'b'
tRp1424
(I1
(tg10
I00
S'>\x1c\xc9\xd5\x9dR\x1c@'
tbsg11
F1
ssI696
(dp1425
g5
g6
(g7
(I0
tS'b'
tRp1426
(I1
(tg10
I00
S'\tim\xbe\xb6^#@'
tbsg11
F1
ssI697
(dp1427
g5
g6
(g7
(I0
tS'b'
tRp1428
(I1
(tg10
I00
S'\xa1\xa1\x10\xb8Ly\x18@'
tbsg11
F1
ssI698
(dp1429
g5
g6
(g7
(I0
tS'b'
tRp1430
(I1
(tg10
I00
S'\xda=\xfa:\x81\x8d\x1e@'
tbsg11
F1
ssI699
(dp1431
g5
g6
(g7
(I0
tS'b'
tRp1432
(I1
(tg10
I00
S'h\xf9\x89\x98$\x8f\x16@'
tbsg11
F1
ssI700
(dp1433
g5
g6
(g7
(I0
tS'b'
tRp1434
(I1
(tg10
I00
S'S"\xec\nsb\x1a@'
tbsg11
F1
sg210
(lp1435
S'D:\\users\\chxing\\aaai2017Exp\\JPdata\\r50maxcount.q1min10max.2-20.1-20\\s2sa_topicAwareGeneration\\/params.npz.700'
p1436
aS'D:\\users\\chxing\\aaai2017Exp\\JPdata\\r50maxcount.q1min10max.2-20.1-20\\s2sa_topicAwareGeneration\\/iterations_state.pkl.700'
p1437
aS'D:\\users\\chxing\\aaai2017Exp\\JPdata\\r50maxcount.q1min10max.2-20.1-20\\s2sa_topicAwareGeneration\\/log.700'
p1438
assI701
(dp1439
g5
g6
(g7
(I0
tS'b'
tRp1440
(I1
(tg10
I00
S"\xf2\x0c\xd3\x9c{'!@"
tbsg11
F1
ssI702
(dp1441
g5
g6
(g7
(I0
tS'b'
tRp1442
(I1
(tg10
I00
S'\xf1 \xd4\xe9\x9b\x9e\x17@'
tbsg11
F1
ssI703
(dp1443
g5
g6
(g7
(I0
tS'b'
tRp1444
(I1
(tg10
I00
S')9\x92\x18\x02\xcc\x19@'
tbsg11
F1
ssI704
(dp1445
g5
g6
(g7
(I0
tS'b'
tRp1446
(I1
(tg10
I00
S'\xe0\xa59\xd8y\xc2\x14@'
tbsg11
F1
ssI705
(dp1447
g5
g6
(g7
(I0
tS'b'
tRp1448
(I1
(tg10
I00
S')LS?\xf4\xf3\x19@'
tbsg11
F1
ssI706
(dp1449
g5
g6
(g7
(I0
tS'b'
tRp1450
(I1
(tg10
I00
S'\xea6e\x15\xab\xe1\x1b@'
tbsg11
F1
ssI707
(dp1451
g5
g6
(g7
(I0
tS'b'
tRp1452
(I1
(tg10
I00
S'\t\x86h\xa1\xfbt"@'
tbsg11
F1
ssI708
(dp1453
g5
g6
(g7
(I0
tS'b'
tRp1454
(I1
(tg10
I00
S'\x1b6\xde&\xde\xfe\x17@'
tbsg11
F1
ssI709
(dp1455
g5
g6
(g7
(I0
tS'b'
tRp1456
(I1
(tg10
I00
S'\xa1\xad\x91B\xfcB\x1e@'
tbsg11
F1
ssI710
(dp1457
g5
g6
(g7
(I0
tS'b'
tRp1458
(I1
(tg10
I00
S'\x18\x96\x1a\x98\xbf\xda\x14@'
tbsg11
F1
ssI711
(dp1459
g5
g6
(g7
(I0
tS'b'
tRp1460
(I1
(tg10
I00
S'\x06\x99\xb3\x93L\xbb\x19@'
tbsg11
F1
ssI712
(dp1461
g5
g6
(g7
(I0
tS'b'
tRp1462
(I1
(tg10
I00
S'S\x0e\x1f\xab\x00\xd7 @'
tbsg11
F1
ssI713
(dp1463
g5
g6
(g7
(I0
tS'b'
tRp1464
(I1
(tg10
I00
S'\x8b\x00\x85\xc3\x99@\x17@'
tbsg11
F1
ssI714
(dp1465
g5
g6
(g7
(I0
tS'b'
tRp1466
(I1
(tg10
I00
S'\x8c\x04\xe4 /(\x19@'
tbsg11
F1
ssI715
(dp1467
g5
g6
(g7
(I0
tS'b'
tRp1468
(I1
(tg10
I00
S'\x0c_\xa02j\xaa\x14@'
tbsg11
F1
ssI716
(dp1469
g5
g6
(g7
(I0
tS'b'
tRp1470
(I1
(tg10
I00
S'\xae\xf4\x17@\xee:\x18@'
tbsg11
F1
ssI717
(dp1471
g5
g6
(g7
(I0
tS'b'
tRp1472
(I1
(tg10
I00
S'l\x95\xde\xfb/\xa2\x1b@'
tbsg11
F1
ssI718
(dp1473
g5
g6
(g7
(I0
tS'b'
tRp1474
(I1
(tg10
I00
S'C\xc8O\x1a\x8b\xa4!@'
tbsg11
F1
ssI719
(dp1475
g5
g6
(g7
(I0
tS'b'
tRp1476
(I1
(tg10
I00
S' p\x970O\x86\x17@'
tbsg11
F1
ssI720
(dp1477
g5
g6
(g7
(I0
tS'b'
tRp1478
(I1
(tg10
I00
S'\xfd\x03\x02\x8cf-\x1e@'
tbsg11
F1
ssI721
(dp1479
g5
g6
(g7
(I0
tS'b'
tRp1480
(I1
(tg10
I00
S'h\xb5\xaf\xde\xd2{\x13@'
tbsg11
F1
ssI722
(dp1481
g5
g6
(g7
(I0
tS'b'
tRp1482
(I1
(tg10
I00
S'\xca\xff$\xfc\xcf+\x19@'
tbsg11
F1
ssI723
(dp1483
g5
g6
(g7
(I0
tS'b'
tRp1484
(I1
(tg10
I00
S'G\x85ok\xab} @'
tbsg11
F1
ssI724
(dp1485
g5
g6
(g7
(I0
tS'b'
tRp1486
(I1
(tg10
I00
S'[fU\xa7\\\xe0\x16@'
tbsg11
F1
ssI725
(dp1487
g5
g6
(g7
(I0
tS'b'
tRp1488
(I1
(tg10
I00
S'\xdfu\x01\xb9e\x86\x18@'
tbsg11
F1
ssI726
(dp1489
g5
g6
(g7
(I0
tS'b'
tRp1490
(I1
(tg10
I00
S'\xe5\xbcHx\xf2\xab\x14@'
tbsg11
F1
ssI727
(dp1491
g5
g6
(g7
(I0
tS'b'
tRp1492
(I1
(tg10
I00
S'\xcbH\x93\x8f\xd5\x82\x16@'
tbsg11
F1
ssI728
(dp1493
g5
g6
(g7
(I0
tS'b'
tRp1494
(I1
(tg10
I00
S'\x17\xfb\x01\r7\xb2\x1b@'
tbsg11
F1
ssI729
(dp1495
g5
g6
(g7
(I0
tS'b'
tRp1496
(I1
(tg10
I00
S'\x9c\xc4\x07\x86\xd1\xbb @'
tbsg11
F1
ssI730
(dp1497
g5
g6
(g7
(I0
tS'b'
tRp1498
(I1
(tg10
I00
S'\x97\xef\xfd\xf9\xf4\x07\x17@'
tbsg11
F1
ssI731
(dp1499
g5
g6
(g7
(I0
tS'b'
tRp1500
(I1
(tg10
I00
S'\x8dS7\xc6\x06\xdb\x1d@'
tbsg11
F1
ssI732
(dp1501
g5
g6
(g7
(I0
tS'b'
tRp1502
(I1
(tg10
I00
S'\xbc\xf8[\x10iG\x12@'
tbsg11
F1
ssI733
(dp1503
g5
g6
(g7
(I0
tS'b'
tRp1504
(I1
(tg10
I00
S'R=\x15\xc6\xd4\xbe\x18@'
tbsg11
F1
ssI734
(dp1505
g5
g6
(g7
(I0
tS'b'
tRp1506
(I1
(tg10
I00
S'j\xd2ub\x12, @'
tbsg11
F1
ssI735
(dp1507
g5
g6
(g7
(I0
tS'b'
tRp1508
(I1
(tg10
I00
S'\xa9%\xa8WW{\x16@'
tbsg11
F1
ssI736
(dp1509
g5
g6
(g7
(I0
tS'b'
tRp1510
(I1
(tg10
I00
S'\xe6\xc6\xba\xbf0\xd8\x17@'
tbsg11
F1
ssI737
(dp1511
g5
g6
(g7
(I0
tS'b'
tRp1512
(I1
(tg10
I00
S'\xb6^\n^O\xb6\x14@'
tbsg11
F1
ssI738
(dp1513
g5
g6
(g7
(I0
tS'b'
tRp1514
(I1
(tg10
I00
S'\xa9\xf7\xb7\x894\x05\x15@'
tbsg11
F1
ssI739
(dp1515
g5
g6
(g7
(I0
tS'b'
tRp1516
(I1
(tg10
I00
S'\x02r\x0f\x07l\xeb\x1b@'
tbsg11
F1
ssI740
(dp1517
g5
g6
(g7
(I0
tS'b'
tRp1518
(I1
(tg10
I00
S'\xc4\xa9/d~\xb1\x1f@'
tbsg11
F1
ssI741
(dp1519
g5
g6
(g7
(I0
tS'b'
tRp1520
(I1
(tg10
I00
S'\x91\x95\xe4\xf0\xb8\x81\x16@'
tbsg11
F1
ssI742
(dp1521
g5
g6
(g7
(I0
tS'b'
tRp1522
(I1
(tg10
I00
S'2\x05\xe7\x17<g\x1d@'
tbsg11
F1
ssI743
(dp1523
g5
g6
(g7
(I0
tS'b'
tRp1524
(I1
(tg10
I00
S'\xf9\xc3K\xee\xc2I\x11@'
tbsg11
F1
ssI744
(dp1525
g5
g6
(g7
(I0
tS'b'
tRp1526
(I1
(tg10
I00
S'\xac(\xc01\x9cr\x18@'
tbsg11
F1
ssI745
(dp1527
g5
g6
(g7
(I0
tS'b'
tRp1528
(I1
(tg10
I00
S'\x82<u\xe0m\xc6\x1f@'
tbsg11
F1
ssI746
(dp1529
g5
g6
(g7
(I0
tS'b'
tRp1530
(I1
(tg10
I00
S'\xcfC\xa9\xb9\xf7\x10\x16@'
tbsg11
F1
ssI747
(dp1531
g5
g6
(g7
(I0
tS'b'
tRp1532
(I1
(tg10
I00
S'\xd2(\x89oO\x07\x17@'
tbsg11
F1
ssI748
(dp1533
g5
g6
(g7
(I0
tS'b'
tRp1534
(I1
(tg10
I00
S'\xcf\x11\r&\x9f\xd4\x14@'
tbsg11
F1
ssI749
(dp1535
g5
g6
(g7
(I0
tS'b'
tRp1536
(I1
(tg10
I00
S'\xd8>0\xa5a\xb8\x13@'
tbsg11
F1
ssI750
(dp1537
g5
g6
(g7
(I0
tS'b'
tRp1538
(I1
(tg10
I00
S'=wL;\x95{\x1c@'
tbsg11
F1
ssI751
(dp1539
g5
g6
(g7
(I0
tS'b'
tRp1540
(I1
(tg10
I00
S'?\xef\x12t\x89\xb5\x1d@'
tbsg11
F1
ssI752
(dp1541
g5
g6
(g7
(I0
tS'b'
tRp1542
(I1
(tg10
I00
S'p\xa6u\xa0\xa0\x15\x16@'
tbsg11
F1
ssI753
(dp1543
g5
g6
(g7
(I0
tS'b'
tRp1544
(I1
(tg10
I00
S'\xa0\xc3,\xc8C\xb7\x1c@'
tbsg11
F1
ssI754
(dp1545
g5
g6
(g7
(I0
tS'b'
tRp1546
(I1
(tg10
I00
S'\x1b\xcd[\xdf\x11\x84\x10@'
tbsg11
F1
ssI755
(dp1547
g5
g6
(g7
(I0
tS'b'
tRp1548
(I1
(tg10
I00
S'\xcc\xf4\xfe\x10\xc7Q\x18@'
tbsg11
F1
ssI756
(dp1549
g5
g6
(g7
(I0
tS'b'
tRp1550
(I1
(tg10
I00
S'\xe08\xff\xc3\xde\x19\x1f@'
tbsg11
F1
ssI757
(dp1551
g5
g6
(g7
(I0
tS'b'
tRp1552
(I1
(tg10
I00
S'\x8c\xa3\xc0\xd3\x1a\x90\x15@'
tbsg11
F1
ssI758
(dp1553
g5
g6
(g7
(I0
tS'b'
tRp1554
(I1
(tg10
I00
S'\xaf%&I\x86f\x16@'
tbsg11
F1
ssI759
(dp1555
g5
g6
(g7
(I0
tS'b'
tRp1556
(I1
(tg10
I00
S'\x0e|\xd5\x87\xa4\xe8\x14@'
tbsg11
F1
ssI760
(dp1557
g5
g6
(g7
(I0
tS'b'
tRp1558
(I1
(tg10
I00
S'{\xd2\x97\x9a\xf2\xab\x12@'
tbsg11
F1
ssI761
(dp1559
g5
g6
(g7
(I0
tS'b'
tRp1560
(I1
(tg10
I00
S'="\x03YL\x0e\x1d@'
tbsg11
F1
ssI762
(dp1561
g5
g6
(g7
(I0
tS'b'
tRp1562
(I1
(tg10
I00
S'U\x90\x81\x8c9\x01\x1c@'
tbsg11
F1
ssI763
(dp1563
g5
g6
(g7
(I0
tS'b'
tRp1564
(I1
(tg10
I00
S'\x89\x98\xd5a\xdb\xa2\x15@'
tbsg11
F1
ssI764
(dp1565
g5
g6
(g7
(I0
tS'b'
tRp1566
(I1
(tg10
I00
S"'O\xbf3\x83}\x1c@"
tbsg11
F1
ssI765
(dp1567
g5
g6
(g7
(I0
tS'b'
tRp1568
(I1
(tg10
I00
S'A\x99\xe0*\xdf\xba\x0f@'
tbsg11
F1
ssI766
(dp1569
g5
g6
(g7
(I0
tS'b'
tRp1570
(I1
(tg10
I00
S"\x9bR\xd7\xe6\x86'\x18@"
tbsg11
F1
ssI767
(dp1571
g5
g6
(g7
(I0
tS'b'
tRp1572
(I1
(tg10
I00
S'\xba\x14\x02\xb3\xa4\x98\x1e@'
tbsg11
F1
ssI768
(dp1573
g5
g6
(g7
(I0
tS'b'
tRp1574
(I1
(tg10
I00
S'"\xf4\x9f\xc4u\x01\x15@'
tbsg11
F1
ssI769
(dp1575
g5
g6
(g7
(I0
tS'b'
tRp1576
(I1
(tg10
I00
S'ELL\xa1\xb4\xc0\x15@'
tbsg11
F1
ssI770
(dp1577
g5
g6
(g7
(I0
tS'b'
tRp1578
(I1
(tg10
I00
S'D\xc0\xb2\x0f\xa9\xfc\x14@'
tbsg11
F1
ssI771
(dp1579
g5
g6
(g7
(I0
tS'b'
tRp1580
(I1
(tg10
I00
S'\x14Z\xfd|\xde\xcb\x11@'
tbsg11
F1
ssI772
(dp1581
g5
g6
(g7
(I0
tS'b'
tRp1582
(I1
(tg10
I00
S'\xef\xd4\xe4\xabl\xbd\x1d@'
tbsg11
F1
ssI773
(dp1583
g5
g6
(g7
(I0
tS'b'
tRp1584
(I1
(tg10
I00
S'\x0e\xa6|x\xb9s\x1a@'
tbsg11
F1
ssI774
(dp1585
g5
g6
(g7
(I0
tS'b'
tRp1586
(I1
(tg10
I00
S'-Y\xfeG\x8b4\x15@'
tbsg11
F1
ssI775
(dp1587
g5
g6
(g7
(I0
tS'b'
tRp1588
(I1
(tg10
I00
S'\xe1\x03\x04\xc1\xd9\xad\x1b@'
tbsg11
F1
ssI776
(dp1589
g5
g6
(g7
(I0
tS'b'
tRp1590
(I1
(tg10
I00
S'\xb3\xb4\xc1\x8b\xe6\xa7\x0e@'
tbsg11
F1
ssI777
(dp1591
g5
g6
(g7
(I0
tS'b'
tRp1592
(I1
(tg10
I00
S'\xec\x1cA\xf8\x80\x08\x18@'
tbsg11
F1
ssI778
(dp1593
g5
g6
(g7
(I0
tS'b'
tRp1594
(I1
(tg10
I00
S'3%\x0e_0:\x1e@'
tbsg11
F1
ssI779
(dp1595
g5
g6
(g7
(I0
tS'b'
tRp1596
(I1
(tg10
I00
S'M\x88\xc4EJ\x87\x14@'
tbsg11
F1
ssI780
(dp1597
g5
g6
(g7
(I0
tS'b'
tRp1598
(I1
(tg10
I00
S'\x92%e\xb0\xdc\x06\x15@'
tbsg11
F1
ssI781
(dp1599
g5
g6
(g7
(I0
tS'b'
tRp1600
(I1
(tg10
I00
S'\x82>\xcd\x10\xc4\xf5\x14@'
tbsg11
F1
ssI782
(dp1601
g5
g6
(g7
(I0
tS'b'
tRp1602
(I1
(tg10
I00
S'\x16?Tn1"\x11@'
tbsg11
F1
ssI783
(dp1603
g5
g6
(g7
(I0
tS'b'
tRp1604
(I1
(tg10
I00
S'\x00.{7\xe8d\x1e@'
tbsg11
F1
ssI784
(dp1605
g5
g6
(g7
(I0
tS'b'
tRp1606
(I1
(tg10
I00
S';\xb7\xb1\x89\xee*\x19@'
tbsg11
F1
ssI785
(dp1607
g5
g6
(g7
(I0
tS'b'
tRp1608
(I1
(tg10
I00
S'\xba>\x00\xcd\xff\xc6\x14@'
tbsg11
F1
ssI786
(dp1609
g5
g6
(g7
(I0
tS'b'
tRp1610
(I1
(tg10
I00
S'\xefNl,;/\x1b@'
tbsg11
F1
ssI787
(dp1611
g5
g6
(g7
(I0
tS'b'
tRp1612
(I1
(tg10
I00
S'\xd0\x9c3\xd9\xe4\xbf\r@'
tbsg11
F1
ssI788
(dp1613
g5
g6
(g7
(I0
tS'b'
tRp1614
(I1
(tg10
I00
S'\r\xa4\xb75/\xf0\x17@'
tbsg11
F1
ssI789
(dp1615
g5
g6
(g7
(I0
tS'b'
tRp1616
(I1
(tg10
I00
S')\x1ce\xd0l\xc3\x1d@'
tbsg11
F1
ssI790
(dp1617
g5
g6
(g7
(I0
tS'b'
tRp1618
(I1
(tg10
I00
S'H\xcbom\xd2\xf0\x13@'
tbsg11
F1
ssI791
(dp1619
g5
g6
(g7
(I0
tS'b'
tRp1620
(I1
(tg10
I00
S'\x15\xb6\xf8&\xcad\x14@'
tbsg11
F1
ssI792
(dp1621
g5
g6
(g7
(I0
tS'b'
tRp1622
(I1
(tg10
I00
S'\xefy\x83h\x1d\xf1\x14@'
tbsg11
F1
ssI793
(dp1623
g5
g6
(g7
(I0
tS'b'
tRp1624
(I1
(tg10
I00
S'\xd4\x84~\xde\x1f\x90\x10@'
tbsg11
F1
ssI794
(dp1625
g5
g6
(g7
(I0
tS'b'
tRp1626
(I1
(tg10
I00
S'\x853e(\x11\xe0\x1e@'
tbsg11
F1
ssI795
(dp1627
g5
g6
(g7
(I0
tS'b'
tRp1628
(I1
(tg10
I00
S'\xc7Y\xc9.Y\x1a\x18@'
tbsg11
F1
ssI796
(dp1629
g5
g6
(g7
(I0
tS'b'
tRp1630
(I1
(tg10
I00
S'z\x16\xc2\xa5\xf8\\\x14@'
tbsg11
F1
ssI797
(dp1631
g5
g6
(g7
(I0
tS'b'
tRp1632
(I1
(tg10
I00
S'\x90\xbc\xea\xe4Zq\x1a@'
tbsg11
F1
ssI798
(dp1633
g5
g6
(g7
(I0
tS'b'
tRp1634
(I1
(tg10
I00
S'[6\xf5)5\xf8\x0c@'
tbsg11
F1
ssI799
(dp1635
g5
g6
(g7
(I0
tS'b'
tRp1636
(I1
(tg10
I00
S'\xe5\xf4\xab\x9a\xd5\xcc\x17@'
tbsg11
F1
ssI800
(dp1637
g5
g6
(g7
(I0
tS'b'
tRp1638
(I1
(tg10
I00
S'=\x04\xfa@\x9fm\x1d@'
tbss(dp1639
S'status'
p1640
(dp1641
S'iterations_done'
p1642
I800
sS'resumed_from'
p1643
NsS'epoch_interrupt_received'
p1644
I00
sS'received_first_batch'
p1645
I01
sS'_epoch_ends'
p1646
(lp1647
I11
aI22
aI33
aI44
aI55
aI66
aI77
aI88
aI99
aI110
aI121
aI132
aI143
aI154
aI165
aI176
aI187
aI198
aI209
aI220
aI231
aI242
aI253
aI264
aI275
aI286
aI297
aI308
aI319
aI330
aI341
aI352
aI363
aI374
aI385
aI396
aI407
aI418
aI429
aI440
aI451
aI462
aI473
aI484
aI495
aI506
aI517
aI528
aI539
aI550
aI561
aI572
aI583
aI594
aI605
aI616
aI627
aI638
aI649
aI660
aI671
aI682
aI693
aI704
aI715
aI726
aI737
aI748
aI759
aI770
aI781
aI792
asS'epochs_done'
p1648
I72
sS'epoch_started'
p1649
I01
sS'batch_interrupt_received'
p1650
I00
sS'training_started'
p1651
I01
ssS'uuid'
p1652
ccopy_reg
_reconstructor
p1653
(cuuid
UUID
p1654
c__builtin__
object
p1655
NtRp1656
(dp1657
S'int'
p1658
L317026615748695535623625184641635535493L
sbsb.