cblocks.log.log
TrainingLog
p1
(tRp2
I0
(dp3
sI1
(dp4
S'perplexity'
p5
cnumpy.core.multiarray
_reconstruct
p6
(cnumpy
ndarray
p7
(I0
tS'b'
tRp8
(I1
(tcnumpy
dtype
p9
(S'f8'
I0
I1
tRp10
(I3
S'<'
NNNI-1
I-1
I0
tbI00
S'y\xfa\xfe\xf7\xdd{\xd6@'
tbsS'learning_rate'
p11
F1
ssI2
(dp12
g5
g6
(g7
(I0
tS'b'
tRp13
(I1
(tg10
I00
S'\x97\xb9t\x81<o\xd6@'
tbsg11
F1
ssI3
(dp14
g5
g6
(g7
(I0
tS'b'
tRp15
(I1
(tg10
I00
S' \xfb\xf7\xdfi$\xd5@'
tbsg11
F1
ssI4
(dp16
g5
g6
(g7
(I0
tS'b'
tRp17
(I1
(tg10
I00
S'`_eUD\xab\xd7@'
tbsg11
F1
ssI5
(dp18
g5
g6
(g7
(I0
tS'b'
tRp19
(I1
(tg10
I00
S'F\x87\xa7C\x1dK\xd6@'
tbsg11
F1
ssI6
(dp20
g5
g6
(g7
(I0
tS'b'
tRp21
(I1
(tg10
I00
S'o[\x91S\xb4\xf1\xd4@'
tbsg11
F1
ssI7
(dp22
g5
g6
(g7
(I0
tS'b'
tRp23
(I1
(tg10
I00
S'\xd4\xec\xf4\x1c1\x19\xd6@'
tbsg11
F1
ssI8
(dp24
g5
g6
(g7
(I0
tS'b'
tRp25
(I1
(tg10
I00
S'&\xdet7\xdec\xd7@'
tbsg11
F1
ssI9
(dp26
g5
g6
(g7
(I0
tS'b'
tRp27
(I1
(tg10
I00
S'\x85s\x96\xcc\xe6\xd5\xd4@'
tbsg11
F1
ssI10
(dp28
g5
g6
(g7
(I0
tS'b'
tRp29
(I1
(tg10
I00
S"\xd6'[\x9d\x11\xdd\xd5@"
tbsg11
F1
ssI11
(dp30
g5
g6
(g7
(I0
tS'b'
tRp31
(I1
(tg10
I00
S'M\x0e@\x7f\xbc\x9d\xd4@'
tbsg11
F1
ssI12
(dp32
g5
g6
(g7
(I0
tS'b'
tRp33
(I1
(tg10
I00
S'\x16:\xff\n|\xab\xd5@'
tbsg11
F1
ssI13
(dp34
g5
g6
(g7
(I0
tS'b'
tRp35
(I1
(tg10
I00
S'\x04\x8fYvQ\x9a\xd5@'
tbsg11
F1
ssI14
(dp36
g5
g6
(g7
(I0
tS'b'
tRp37
(I1
(tg10
I00
S'\xac\xc94\xde6Q\xd4@'
tbsg11
F1
ssI15
(dp38
g5
g6
(g7
(I0
tS'b'
tRp39
(I1
(tg10
I00
S'\x84\xa1\x8a\x060\x99\xd6@'
tbsg11
F1
ssI16
(dp40
g5
g6
(g7
(I0
tS'b'
tRp41
(I1
(tg10
I00
S"\xf7e\x07D\xe4'\xd5@"
tbsg11
F1
ssI17
(dp42
g5
g6
(g7
(I0
tS'b'
tRp43
(I1
(tg10
I00
S'\x12\xbc\xbd\xf3\x8f\xa7\xd3@'
tbsg11
F1
ssI18
(dp44
g5
g6
(g7
(I0
tS'b'
tRp45
(I1
(tg10
I00
S'\x19\x97\xdc*\xcf\x8c\xd4@'
tbsg11
F1
ssI19
(dp46
g5
g6
(g7
(I0
tS'b'
tRp47
(I1
(tg10
I00
S'\xd6\x92\x9c3\xb7\x99\xd5@'
tbsg11
F1
ssI20
(dp48
g5
g6
(g7
(I0
tS'b'
tRp49
(I1
(tg10
I00
S'\xd8\xf5Ba\x87\xf3\xd2@'
tbsg11
F1
ssI21
(dp50
g5
g6
(g7
(I0
tS'b'
tRp51
(I1
(tg10
I00
S'\xb0\xbe\xe4\xec\xf9\x11\xd3@'
tbsg11
F1
ssI22
(dp52
g5
g6
(g7
(I0
tS'b'
tRp53
(I1
(tg10
I00
S'\x1f\xf6O\xca\x11#\xd1@'
tbsg11
F1
ssI23
(dp54
g5
g6
(g7
(I0
tS'b'
tRp55
(I1
(tg10
I00
S'Y\xb0z/\xc0\x0f\xd1@'
tbsg11
F1
ssI24
(dp56
g5
g6
(g7
(I0
tS'b'
tRp57
(I1
(tg10
I00
S'_\xd6\xa4B67\xce@'
tbsg11
F1
ssI25
(dp58
g5
g6
(g7
(I0
tS'b'
tRp59
(I1
(tg10
I00
S'\xb7\xf9\x04f4n\xc8@'
tbsg11
F1
ssI26
(dp60
g5
g6
(g7
(I0
tS'b'
tRp61
(I1
(tg10
I00
S'\n\xff\xeb\xbdOV\xc3@'
tbsg11
F1
ssI27
(dp62
g5
g6
(g7
(I0
tS'b'
tRp63
(I1
(tg10
I00
S'\xd33\xfa\xf7\xc5\x0b\xb4@'
tbsg11
F1
ssI28
(dp64
g5
g6
(g7
(I0
tS'b'
tRp65
(I1
(tg10
I00
S'\xc6\x82\xaeA1\xc8\xa0@'
tbsg11
F1
ssI29
(dp66
g5
g6
(g7
(I0
tS'b'
tRp67
(I1
(tg10
I00
S'\xafef\x97\x0c(\xa3@'
tbsg11
F1
ssI30
(dp68
g5
g6
(g7
(I0
tS'b'
tRp69
(I1
(tg10
I00
S'\xdb\xddx&XZ\xa7@'
tbsg11
F1
ssI31
(dp70
g5
g6
(g7
(I0
tS'b'
tRp71
(I1
(tg10
I00
S'\xa1?\xa9\xf8E\x05\xa3@'
tbsg11
F1
ssI32
(dp72
g5
g6
(g7
(I0
tS'b'
tRp73
(I1
(tg10
I00
S"\x0c\xf6\xc5'\x00]\xa0@"
tbsg11
F1
ssI33
(dp74
g5
g6
(g7
(I0
tS'b'
tRp75
(I1
(tg10
I00
S'r\x06\xe2w\x06\xea\x95@'
tbsg11
F1
ssI34
(dp76
g5
g6
(g7
(I0
tS'b'
tRp77
(I1
(tg10
I00
S'\xe9\x1cA\xeeKG\xa0@'
tbsg11
F1
ssI35
(dp78
g5
g6
(g7
(I0
tS'b'
tRp79
(I1
(tg10
I00
S'\xecu\xd4\xb9p\xff\x9e@'
tbsg11
F1
ssI36
(dp80
g5
g6
(g7
(I0
tS'b'
tRp81
(I1
(tg10
I00
S'OX\xe1tN\x84\xa1@'
tbsg11
F1
ssI37
(dp82
g5
g6
(g7
(I0
tS'b'
tRp83
(I1
(tg10
I00
S'\xbb\xd2B\xac\xf1l\xa2@'
tbsg11
F1
ssI38
(dp84
g5
g6
(g7
(I0
tS'b'
tRp85
(I1
(tg10
I00
S'p\xb6\x8e\xa9`z\x99@'
tbsg11
F1
ssI39
(dp86
g5
g6
(g7
(I0
tS'b'
tRp87
(I1
(tg10
I00
S'\xee\x9f\xddc\x8b\xb2\x91@'
tbsg11
F1
ssI40
(dp88
g5
g6
(g7
(I0
tS'b'
tRp89
(I1
(tg10
I00
S'\xcf\xbdg\xb7\xfa\t\x94@'
tbsg11
F1
ssI41
(dp90
g5
g6
(g7
(I0
tS'b'
tRp91
(I1
(tg10
I00
S'\x96FQ9f7\xa6@'
tbsg11
F1
ssI42
(dp92
g5
g6
(g7
(I0
tS'b'
tRp93
(I1
(tg10
I00
S'-\xe4\xff\xc2\xcb\x14\xa0@'
tbsg11
F1
ssI43
(dp94
g5
g6
(g7
(I0
tS'b'
tRp95
(I1
(tg10
I00
S'h\n\x8b\x1c_\x90\x8f@'
tbsg11
F1
ssI44
(dp96
g5
g6
(g7
(I0
tS'b'
tRp97
(I1
(tg10
I00
S'\xed\xfb_\x17\x0b\xaa\x80@'
tbsg11
F1
ssI45
(dp98
g5
g6
(g7
(I0
tS'b'
tRp99
(I1
(tg10
I00
S'X\xb3\xd4`\xf5<\x9c@'
tbsg11
F1
ssI46
(dp100
g5
g6
(g7
(I0
tS'b'
tRp101
(I1
(tg10
I00
S'\xacG\xbc\xa7\xdc\x19\x90@'
tbsg11
F1
ssI47
(dp102
g5
g6
(g7
(I0
tS'b'
tRp103
(I1
(tg10
I00
S'V\xa76\xa9G\xe6\x9e@'
tbsg11
F1
ssI48
(dp104
g5
g6
(g7
(I0
tS'b'
tRp105
(I1
(tg10
I00
S'\xadT{\x8cY|\x9b@'
tbsg11
F1
ssI49
(dp106
g5
g6
(g7
(I0
tS'b'
tRp107
(I1
(tg10
I00
S'\xd9\x11-\xe9wP\x91@'
tbsg11
F1
ssI50
(dp108
g5
g6
(g7
(I0
tS'b'
tRp109
(I1
(tg10
I00
S'\xb7\x00\xec\x89\xa0\x04\x85@'
tbsg11
F1
ssI51
(dp110
g5
g6
(g7
(I0
tS'b'
tRp111
(I1
(tg10
I00
S'\x92\xce\xe5\x04\xa3\x97\x8f@'
tbsg11
F1
ssI52
(dp112
g5
g6
(g7
(I0
tS'b'
tRp113
(I1
(tg10
I00
S'\x13\xae\xc8Fa\xce\xa0@'
tbsg11
F1
ssI53
(dp114
g5
g6
(g7
(I0
tS'b'
tRp115
(I1
(tg10
I00
S'^\xfb\x07\xb1]>\x95@'
tbsg11
F1
ssI54
(dp116
g5
g6
(g7
(I0
tS'b'
tRp117
(I1
(tg10
I00
S'\x8fd\xb2\xa3\xba\x8a\x86@'
tbsg11
F1
ssI55
(dp118
g5
g6
(g7
(I0
tS'b'
tRp119
(I1
(tg10
I00
S'\x91\xa3\xc1RK\xb4v@'
tbsg11
F1
ssI56
(dp120
g5
g6
(g7
(I0
tS'b'
tRp121
(I1
(tg10
I00
S'J\x07LK\x80A\x90@'
tbsg11
F1
ssI57
(dp122
g5
g6
(g7
(I0
tS'b'
tRp123
(I1
(tg10
I00
S'\x9d\x084\xd9\xd3\xf0\x84@'
tbsg11
F1
ssI58
(dp124
g5
g6
(g7
(I0
tS'b'
tRp125
(I1
(tg10
I00
S'O\xff\x0f\x08\xa33\x8d@'
tbsg11
F1
ssI59
(dp126
g5
g6
(g7
(I0
tS'b'
tRp127
(I1
(tg10
I00
S's\r\xe4\xc9\xb7\x9a\x84@'
tbsg11
F1
ssI60
(dp128
g5
g6
(g7
(I0
tS'b'
tRp129
(I1
(tg10
I00
S'\xb3by\x94\xb7\xa4s@'
tbsg11
F1
ssI61
(dp130
g5
g6
(g7
(I0
tS'b'
tRp131
(I1
(tg10
I00
S'\xcb\xdd\xbe\x889Am@'
tbsg11
F1
ssI62
(dp132
g5
g6
(g7
(I0
tS'b'
tRp133
(I1
(tg10
I00
S'\xe9\xe9\xcb>\xc6\x87p@'
tbsg11
F1
ssI63
(dp134
g5
g6
(g7
(I0
tS'b'
tRp135
(I1
(tg10
I00
S'k\xbb!`\xed\x16s@'
tbsg11
F1
ssI64
(dp136
g5
g6
(g7
(I0
tS'b'
tRp137
(I1
(tg10
I00
S'\x11\xcd\x1d\xa1<@|@'
tbsg11
F1
ssI65
(dp138
g5
g6
(g7
(I0
tS'b'
tRp139
(I1
(tg10
I00
S'\x8a\xc7\x8c\x9a\x00\xc0P@'
tbsg11
F1
ssI66
(dp140
g5
g6
(g7
(I0
tS'b'
tRp141
(I1
(tg10
I00
S'\xb8\r\xe5|\x93\x1f\xa2@'
tbsg11
F1
ssI67
(dp142
g5
g6
(g7
(I0
tS'b'
tRp143
(I1
(tg10
I00
S'\xe5l\xef\xdfd\xb7^@'
tbsg11
F1
ssI68
(dp144
g5
g6
(g7
(I0
tS'b'
tRp145
(I1
(tg10
I00
S'\xe3\x1e\xbeI\xee\xaf\x8d@'
tbsg11
F1
ssI69
(dp146
g5
g6
(g7
(I0
tS'b'
tRp147
(I1
(tg10
I00
S'q0\x1b\x8e\x19\xb1c@'
tbsg11
F1
ssI70
(dp148
g5
g6
(g7
(I0
tS'b'
tRp149
(I1
(tg10
I00
S'\xb2\x191\xa8kw`@'
tbsg11
F1
ssI71
(dp150
g5
g6
(g7
(I0
tS'b'
tRp151
(I1
(tg10
I00
S'.E\x9d*M\xeb]@'
tbsg11
F1
ssI72
(dp152
g5
g6
(g7
(I0
tS'b'
tRp153
(I1
(tg10
I00
S'\t\x030\xcbx#X@'
tbsg11
F1
ssI73
(dp154
g5
g6
(g7
(I0
tS'b'
tRp155
(I1
(tg10
I00
S'\x19\xd0\xa4J\x98\xb0S@'
tbsg11
F1
ssI74
(dp156
g5
g6
(g7
(I0
tS'b'
tRp157
(I1
(tg10
I00
S'!i\x87LUVX@'
tbsg11
F1
ssI75
(dp158
g5
g6
(g7
(I0
tS'b'
tRp159
(I1
(tg10
I00
S':EF\x9bj\xa6^@'
tbsg11
F1
ssI76
(dp160
g5
g6
(g7
(I0
tS'b'
tRp161
(I1
(tg10
I00
S'P\xec\xaa=\x17\xb7D@'
tbsg11
F1
ssI77
(dp162
g5
g6
(g7
(I0
tS'b'
tRp163
(I1
(tg10
I00
S'\x9a\xed\x8d\xd1\x18\xd1^@'
tbsg11
F1
ssI78
(dp164
g5
g6
(g7
(I0
tS'b'
tRp165
(I1
(tg10
I00
S'\x18\x90\x9b\x1f\x89\x01P@'
tbsg11
F1
ssI79
(dp166
g5
g6
(g7
(I0
tS'b'
tRp167
(I1
(tg10
I00
S'\xbf\x1b\xd9P\xa9\xdaK@'
tbsg11
F1
ssI80
(dp168
g5
g6
(g7
(I0
tS'b'
tRp169
(I1
(tg10
I00
S'J\xc7\xf4\xdb\xdf\x03T@'
tbsg11
F1
ssI81
(dp170
g5
g6
(g7
(I0
tS'b'
tRp171
(I1
(tg10
I00
S'S\xf1iY\xf7R;@'
tbsg11
F1
ssI82
(dp172
g5
g6
(g7
(I0
tS'b'
tRp173
(I1
(tg10
I00
S'_\xef2<\xcd\xaeB@'
tbsg11
F1
ssI83
(dp174
g5
g6
(g7
(I0
tS'b'
tRp175
(I1
(tg10
I00
S'\xb8c\xfd\x7f\xa8Y<@'
tbsg11
F1
ssI84
(dp176
g5
g6
(g7
(I0
tS'b'
tRp177
(I1
(tg10
I00
S'\x99\x8b\xcdh\x8c_<@'
tbsg11
F1
ssI85
(dp178
g5
g6
(g7
(I0
tS'b'
tRp179
(I1
(tg10
I00
S"\xcd\xc2V\xd1''C@"
tbsg11
F1
ssI86
(dp180
g5
g6
(g7
(I0
tS'b'
tRp181
(I1
(tg10
I00
S'K\xe2\x9f\xcb"\xfa\\@'
tbsg11
F1
ssI87
(dp182
g5
g6
(g7
(I0
tS'b'
tRp183
(I1
(tg10
I00
S'\xb4\xb8\x0e\x07Z :@'
tbsg11
F1
ssI88
(dp184
g5
g6
(g7
(I0
tS'b'
tRp185
(I1
(tg10
I00
S'\x90:=\xf2?\xe9J@'
tbsg11
F1
ssI89
(dp186
g5
g6
(g7
(I0
tS'b'
tRp187
(I1
(tg10
I00
S'\xdd\xa1.\x8c\xa1\xfcB@'
tbsg11
F1
ssI90
(dp188
g5
g6
(g7
(I0
tS'b'
tRp189
(I1
(tg10
I00
S'1\xe2\xb5\xfc\x95\x93;@'
tbsg11
F1
ssI91
(dp190
g5
g6
(g7
(I0
tS'b'
tRp191
(I1
(tg10
I00
S'\xed\xf3\xb9j\x0f\x11J@'
tbsg11
F1
ssI92
(dp192
g5
g6
(g7
(I0
tS'b'
tRp193
(I1
(tg10
I00
S'\xb4\xb1p\xc3\xe2\x0f8@'
tbsg11
F1
ssI93
(dp194
g5
g6
(g7
(I0
tS'b'
tRp195
(I1
(tg10
I00
S'\xde\xdfB\xf5\x9dm7@'
tbsg11
F1
ssI94
(dp196
g5
g6
(g7
(I0
tS'b'
tRp197
(I1
(tg10
I00
S'\x9b\xcc\x9f\x9f\xbe\xfc5@'
tbsg11
F1
ssI95
(dp198
g5
g6
(g7
(I0
tS'b'
tRp199
(I1
(tg10
I00
S'\x0e\x98\xea\x167\x8d:@'
tbsg11
F1
ssI96
(dp200
g5
g6
(g7
(I0
tS'b'
tRp201
(I1
(tg10
I00
S'\xde\x9c<\xf5\xfe\xb17@'
tbsg11
F1
ssI97
(dp202
g5
g6
(g7
(I0
tS'b'
tRp203
(I1
(tg10
I00
S'wyA *\xf2@@'
tbsg11
F1
ssI98
(dp204
g5
g6
(g7
(I0
tS'b'
tRp205
(I1
(tg10
I00
S'\xd4\x89$!\xb0\x1f5@'
tbsg11
F1
ssI99
(dp206
g5
g6
(g7
(I0
tS'b'
tRp207
(I1
(tg10
I00
S'\xb8oyO\xa2\x9b@@'
tbsg11
F1
ssI100
(dp208
g5
g6
(g7
(I0
tS'b'
tRp209
(I1
(tg10
I00
S'\xde\x06\xd8i\x8c\xe9A@'
tbsg11
F1
sS'saved_to'
p210
(lp211
S'D:\\users\\chxing\\aaai2017Exp\\JPdata\\r50maxcount.q1min10max.2-20.1-20\\s2sa_topicAwareGeneration\\/params.npz.100'
p212
aS'D:\\users\\chxing\\aaai2017Exp\\JPdata\\r50maxcount.q1min10max.2-20.1-20\\s2sa_topicAwareGeneration\\/iterations_state.pkl.100'
p213
aS'D:\\users\\chxing\\aaai2017Exp\\JPdata\\r50maxcount.q1min10max.2-20.1-20\\s2sa_topicAwareGeneration\\/log.100'
p214
assI101
(dp215
g5
g6
(g7
(I0
tS'b'
tRp216
(I1
(tg10
I00
S'\xa0T\x11\x1c-\xcb:@'
tbsg11
F1
ssI102
(dp217
g5
g6
(g7
(I0
tS'b'
tRp218
(I1
(tg10
I00
S'\x0c\x92y\x8e\x82[C@'
tbsg11
F1
ssI103
(dp219
g5
g6
(g7
(I0
tS'b'
tRp220
(I1
(tg10
I00
S'\xc6=\xda\xca\x1dV3@'
tbsg11
F1
ssI104
(dp221
g5
g6
(g7
(I0
tS'b'
tRp222
(I1
(tg10
I00
S',\x8b\x940"i5@'
tbsg11
F1
ssI105
(dp223
g5
g6
(g7
(I0
tS'b'
tRp224
(I1
(tg10
I00
S'\xcc\x81\x80\x18\xd4\xbc2@'
tbsg11
F1
ssI106
(dp225
g5
g6
(g7
(I0
tS'b'
tRp226
(I1
(tg10
I00
S'$7\xf9\xca\x15\xcd6@'
tbsg11
F1
ssI107
(dp227
g5
g6
(g7
(I0
tS'b'
tRp228
(I1
(tg10
I00
S'\x88\x8c3\x1a\x06p5@'
tbsg11
F1
ssI108
(dp229
g5
g6
(g7
(I0
tS'b'
tRp230
(I1
(tg10
I00
S'gW\x0b\x99\xca\xb79@'
tbsg11
F1
ssI109
(dp231
g5
g6
(g7
(I0
tS'b'
tRp232
(I1
(tg10
I00
S'\x17\xd0\xf3\xedI\x7f6@'
tbsg11
F1
ssI110
(dp233
g5
g6
(g7
(I0
tS'b'
tRp234
(I1
(tg10
I00
S'g\xdf\xa5\\n\x8b8@'
tbsg11
F1
ssI111
(dp235
g5
g6
(g7
(I0
tS'b'
tRp236
(I1
(tg10
I00
S'L\xf8\xcf\x8f\x96t?@'
tbsg11
F1
ssI112
(dp237
g5
g6
(g7
(I0
tS'b'
tRp238
(I1
(tg10
I00
S'Z\xe4\t\xbd\x02n;@'
tbsg11
F1
ssI113
(dp239
g5
g6
(g7
(I0
tS'b'
tRp240
(I1
(tg10
I00
S'\xdb\xe0\xbf\xc8\xb7\xba@@'
tbsg11
F1
ssI114
(dp241
g5
g6
(g7
(I0
tS'b'
tRp242
(I1
(tg10
I00
S'6\x960["\xca1@'
tbsg11
F1
ssI115
(dp243
g5
g6
(g7
(I0
tS'b'
tRp244
(I1
(tg10
I00
S'\x82C\x14\xb1\xc7Z4@'
tbsg11
F1
ssI116
(dp245
g5
g6
(g7
(I0
tS'b'
tRp246
(I1
(tg10
I00
S'\x16WD\xb4\xd3\xfa0@'
tbsg11
F1
ssI117
(dp247
g5
g6
(g7
(I0
tS'b'
tRp248
(I1
(tg10
I00
S'\x04P\xc4"\xb8\xca5@'
tbsg11
F1
ssI118
(dp249
g5
g6
(g7
(I0
tS'b'
tRp250
(I1
(tg10
I00
S'\x85\xad\x98a\x11\x8f4@'
tbsg11
F1
ssI119
(dp251
g5
g6
(g7
(I0
tS'b'
tRp252
(I1
(tg10
I00
S'9\xea\xdcy\x86\xd16@'
tbsg11
F1
ssI120
(dp253
g5
g6
(g7
(I0
tS'b'
tRp254
(I1
(tg10
I00
S'\xe9\x06\xadD\xff\xa45@'
tbsg11
F1
ssI121
(dp255
g5
g6
(g7
(I0
tS'b'
tRp256
(I1
(tg10
I00
S'\x83{\xaeE\t"6@'
tbsg11
F1
ssI122
(dp257
g5
g6
(g7
(I0
tS'b'
tRp258
(I1
(tg10
I00
S'N18\xa4\x8f&>@'
tbsg11
F1
ssI123
(dp259
g5
g6
(g7
(I0
tS'b'
tRp260
(I1
(tg10
I00
S'(\x9fI\xf3\xf2\x82;@'
tbsg11
F1
ssI124
(dp261
g5
g6
(g7
(I0
tS'b'
tRp262
(I1
(tg10
I00
S'\x977\x02\xcc\x0c_>@'
tbsg11
F1
ssI125
(dp263
g5
g6
(g7
(I0
tS'b'
tRp264
(I1
(tg10
I00
S'\xe0\x04\xe2\x98\xc6\xce0@'
tbsg11
F1
ssI126
(dp265
g5
g6
(g7
(I0
tS'b'
tRp266
(I1
(tg10
I00
S'\xbb\xb1m\x1b^\x8d3@'
tbsg11
F1
ssI127
(dp267
g5
g6
(g7
(I0
tS'b'
tRp268
(I1
(tg10
I00
S'\x01O\xa5U1\x060@'
tbsg11
F1
ssI128
(dp269
g5
g6
(g7
(I0
tS'b'
tRp270
(I1
(tg10
I00
S'\xf6\xe9*\xc3\xb6z4@'
tbsg11
F1
ssI129
(dp271
g5
g6
(g7
(I0
tS'b'
tRp272
(I1
(tg10
I00
S'\xe3(.\xca\x9b)3@'
tbsg11
F1
ssI130
(dp273
g5
g6
(g7
(I0
tS'b'
tRp274
(I1
(tg10
I00
S'\xec\x18A,\xf6\xb05@'
tbsg11
F1
ssI131
(dp275
g5
g6
(g7
(I0
tS'b'
tRp276
(I1
(tg10
I00
S'\x08\xd80\xb3\xe3\xd13@'
tbsg11
F1
ssI132
(dp277
g5
g6
(g7
(I0
tS'b'
tRp278
(I1
(tg10
I00
S'\xd3@h!\xfd\xdc:@'
tbsg11
F1
ssI133
(dp279
g5
g6
(g7
(I0
tS'b'
tRp280
(I1
(tg10
I00
S'\xf4\xa7\x1c\xc0W\xc3>@'
tbsg11
F1
ssI134
(dp281
g5
g6
(g7
(I0
tS'b'
tRp282
(I1
(tg10
I00
S'_\xac\xfd\x1be\xa57@'
tbsg11
F1
ssI135
(dp283
g5
g6
(g7
(I0
tS'b'
tRp284
(I1
(tg10
I00
S'-\xb95(\xeb\x9f<@'
tbsg11
F1
ssI136
(dp285
g5
g6
(g7
(I0
tS'b'
tRp286
(I1
(tg10
I00
S'\xa7$\xcf?\x97\xa1/@'
tbsg11
F1
ssI137
(dp287
g5
g6
(g7
(I0
tS'b'
tRp288
(I1
(tg10
I00
S'\xf2\xc2\xbe,\xb2\x953@'
tbsg11
F1
ssI138
(dp289
g5
g6
(g7
(I0
tS'b'
tRp290
(I1
(tg10
I00
S'\x8eJ\xd9\xec\x8a\xef/@'
tbsg11
F1
ssI139
(dp291
g5
g6
(g7
(I0
tS'b'
tRp292
(I1
(tg10
I00
S'X9\r\x13\x1cE3@'
tbsg11
F1
ssI140
(dp293
g5
g6
(g7
(I0
tS'b'
tRp294
(I1
(tg10
I00
S'_\x9e3+\xca\x9e3@'
tbsg11
F1
ssI141
(dp295
g5
g6
(g7
(I0
tS'b'
tRp296
(I1
(tg10
I00
S'\x11\xeb\t\xaf\x81\x8eN@'
tbsg11
F1
ssI142
(dp297
g5
g6
(g7
(I0
tS'b'
tRp298
(I1
(tg10
I00
S'\x9f\x0b\xe1\x00\x06M3@'
tbsg11
F1
ssI143
(dp299
g5
g6
(g7
(I0
tS'b'
tRp300
(I1
(tg10
I00
S'u&\x95\xaftQ<@'
tbsg11
F1
ssI144
(dp301
g5
g6
(g7
(I0
tS'b'
tRp302
(I1
(tg10
I00
S'K\xf0\x83L\x1b\xc2:@'
tbsg11
F1
ssI145
(dp303
g5
g6
(g7
(I0
tS'b'
tRp304
(I1
(tg10
I00
S'2\xf7\xae\x1e\xc1\xa33@'
tbsg11
F1
ssI146
(dp305
g5
g6
(g7
(I0
tS'b'
tRp306
(I1
(tg10
I00
S'\x16\x14\xc6\xd2\xd3\xc4<@'
tbsg11
F1
ssI147
(dp307
g5
g6
(g7
(I0
tS'b'
tRp308
(I1
(tg10
I00
S'pe"B\xd4\xfa1@'
tbsg11
F1
ssI148
(dp309
g5
g6
(g7
(I0
tS'b'
tRp310
(I1
(tg10
I00
S'\x9f/\xa5\xb1\xe9}1@'
tbsg11
F1
ssI149
(dp311
g5
g6
(g7
(I0
tS'b'
tRp312
(I1
(tg10
I00
S'\xfe\xe1`\xf2v\xc2.@'
tbsg11
F1
ssI150
(dp313
g5
g6
(g7
(I0
tS'b'
tRp314
(I1
(tg10
I00
S'b\x8af\rn\x8e2@'
tbsg11
F1
ssI151
(dp315
g5
g6
(g7
(I0
tS'b'
tRp316
(I1
(tg10
I00
S'\x97%FN\xa9\xce1@'
tbsg11
F1
ssI152
(dp317
g5
g6
(g7
(I0
tS'b'
tRp318
(I1
(tg10
I00
S'\xb3\xec\xd5\x0bKJ5@'
tbsg11
F1
ssI153
(dp319
g5
g6
(g7
(I0
tS'b'
tRp320
(I1
(tg10
I00
S'\\"\xf3\xec\xc0\x122@'
tbsg11
F1
ssI154
(dp321
g5
g6
(g7
(I0
tS'b'
tRp322
(I1
(tg10
I00
S'\xcf7\xb0\x1cwF5@'
tbsg11
F1
ssI155
(dp323
g5
g6
(g7
(I0
tS'b'
tRp324
(I1
(tg10
I00
S'\xaf\xfc\xa7\x12\x14]<@'
tbsg11
F1
ssI156
(dp325
g5
g6
(g7
(I0
tS'b'
tRp326
(I1
(tg10
I00
S'J\xae\xc3\xf9\xff\xc97@'
tbsg11
F1
ssI157
(dp327
g5
g6
(g7
(I0
tS'b'
tRp328
(I1
(tg10
I00
S'\x9d\xd5\x16\x9dTt9@'
tbsg11
F1
ssI158
(dp329
g5
g6
(g7
(I0
tS'b'
tRp330
(I1
(tg10
I00
S' \xff\xe2\xc7\xa46.@'
tbsg11
F1
ssI159
(dp331
g5
g6
(g7
(I0
tS'b'
tRp332
(I1
(tg10
I00
S'm\xb8\xd4\xe9\xefC2@'
tbsg11
F1
ssI160
(dp333
g5
g6
(g7
(I0
tS'b'
tRp334
(I1
(tg10
I00
S'\x91\xed\x90\xc2\x99\x82.@'
tbsg11
F1
ssI161
(dp335
g5
g6
(g7
(I0
tS'b'
tRp336
(I1
(tg10
I00
S'\xeb\x8fo\x96\x1dt5@'
tbsg11
F1
ssI162
(dp337
g5
g6
(g7
(I0
tS'b'
tRp338
(I1
(tg10
I00
S'\xfe\xcd!C\xb0\x82@@'
tbsg11
F1
ssI163
(dp339
g5
g6
(g7
(I0
tS'b'
tRp340
(I1
(tg10
I00
S'UUU\x85\x89\x91>@'
tbsg11
F1
ssI164
(dp341
g5
g6
(g7
(I0
tS'b'
tRp342
(I1
(tg10
I00
S"\r'\xc1\xba\x88`5@"
tbsg11
F1
ssI165
(dp343
g5
g6
(g7
(I0
tS'b'
tRp344
(I1
(tg10
I00
S'\x1aH\xe7A\xc7\xdf1@'
tbsg11
F1
ssI166
(dp345
g5
g6
(g7
(I0
tS'b'
tRp346
(I1
(tg10
I00
S'\xc1\x17EJk[:@'
tbsg11
F1
ssI167
(dp347
g5
g6
(g7
(I0
tS'b'
tRp348
(I1
(tg10
I00
S'=\xf4\x86phi7@'
tbsg11
F1
ssI168
(dp349
g5
g6
(g7
(I0
tS'b'
tRp350
(I1
(tg10
I00
S'\xfb\x8dyG\xb5\x8b9@'
tbsg11
F1
ssI169
(dp351
g5
g6
(g7
(I0
tS'b'
tRp352
(I1
(tg10
I00
S'\xd8g\nd?\xa5/@'
tbsg11
F1
ssI170
(dp353
g5
g6
(g7
(I0
tS'b'
tRp354
(I1
(tg10
I00
S'\xca\x0e\xe2nT\xf40@'
tbsg11
F1
ssI171
(dp355
g5
g6
(g7
(I0
tS'b'
tRp356
(I1
(tg10
I00
S'\r\x07\x98Jg\xa2,@'
tbsg11
F1
ssI172
(dp357
g5
g6
(g7
(I0
tS'b'
tRp358
(I1
(tg10
I00
S'o\x93G_\x80\xe52@'
tbsg11
F1
ssI173
(dp359
g5
g6
(g7
(I0
tS'b'
tRp360
(I1
(tg10
I00
S'\x7f\xeb\xe1\xba\xc4\xde:@'
tbsg11
F1
ssI174
(dp361
g5
g6
(g7
(I0
tS'b'
tRp362
(I1
(tg10
I00
S'\xde\xf4\x98\x83ikD@'
tbsg11
F1
ssI175
(dp363
g5
g6
(g7
(I0
tS'b'
tRp364
(I1
(tg10
I00
S'\xdcc\x1e\x19L\xec2@'
tbsg11
F1
ssI176
(dp365
g5
g6
(g7
(I0
tS'b'
tRp366
(I1
(tg10
I00
S'\xf9e8\t<V1@'
tbsg11
F1
ssI177
(dp367
g5
g6
(g7
(I0
tS'b'
tRp368
(I1
(tg10
I00
S'\x93jo\xaa\x1f\x1d9@'
tbsg11
F1
ssI178
(dp369
g5
g6
(g7
(I0
tS'b'
tRp370
(I1
(tg10
I00
S'\xfc\x1eE\xc2\x8f\xc65@'
tbsg11
F1
ssI179
(dp371
g5
g6
(g7
(I0
tS'b'
tRp372
(I1
(tg10
I00
S'\xb28\xb2\xdbK19@'
tbsg11
F1
ssI180
(dp373
g5
g6
(g7
(I0
tS'b'
tRp374
(I1
(tg10
I00
S'\x81\xa9\x82\xc7\x1eZ0@'
tbsg11
F1
ssI181
(dp375
g5
g6
(g7
(I0
tS'b'
tRp376
(I1
(tg10
I00
S'\xd3D\x85?\xd0G0@'
tbsg11
F1
ssI182
(dp377
g5
g6
(g7
(I0
tS'b'
tRp378
(I1
(tg10
I00
S'\x11\xac\xb0\xd55\xd7+@'
tbsg11
F1
ssI183
(dp379
g5
g6
(g7
(I0
tS'b'
tRp380
(I1
(tg10
I00
S'\x92K|\x05\x1d\x962@'
tbsg11
F1
ssI184
(dp381
g5
g6
(g7
(I0
tS'b'
tRp382
(I1
(tg10
I00
S'\\P\xfe\xcbY\xd7;@'
tbsg11
F1
ssI185
(dp383
g5
g6
(g7
(I0
tS'b'
tRp384
(I1
(tg10
I00
S':\xbd\xe90\xdd\x83B@'
tbsg11
F1
ssI186
(dp385
g5
g6
(g7
(I0
tS'b'
tRp386
(I1
(tg10
I00
S'nc\xda\tv\xfe2@'
tbsg11
F1
ssI187
(dp387
g5
g6
(g7
(I0
tS'b'
tRp388
(I1
(tg10
I00
S'\xb4\xe9\x08\xc5C\x9a0@'
tbsg11
F1
ssI188
(dp389
g5
g6
(g7
(I0
tS'b'
tRp390
(I1
(tg10
I00
S'\xd1\xc0[\xae\x10\x8b8@'
tbsg11
F1
ssI189
(dp391
g5
g6
(g7
(I0
tS'b'
tRp392
(I1
(tg10
I00
S'\x1c\xabt\xf3\x97\xdd5@'
tbsg11
F1
ssI190
(dp393
g5
g6
(g7
(I0
tS'b'
tRp394
(I1
(tg10
I00
S'\xa3\x9b\xf1\t\x9ar8@'
tbsg11
F1
ssI191
(dp395
g5
g6
(g7
(I0
tS'b'
tRp396
(I1
(tg10
I00
S'\xfaj\x1er\r\x050@'
tbsg11
F1
ssI192
(dp397
g5
g6
(g7
(I0
tS'b'
tRp398
(I1
(tg10
I00
S'E\x8am\xf9\x84\x070@'
tbsg11
F1
ssI193
(dp399
g5
g6
(g7
(I0
tS'b'
tRp400
(I1
(tg10
I00
S'JcI}u$+@'
tbsg11
F1
ssI194
(dp401
g5
g6
(g7
(I0
tS'b'
tRp402
(I1
(tg10
I00
S'\x0c\xaf\xadj\x86\x912@'
tbsg11
F1
ssI195
(dp403
g5
g6
(g7
(I0
tS'b'
tRp404
(I1
(tg10
I00
S'\x1a\x14\xbe\x9b\\\xc1<@'
tbsg11
F1
ssI196
(dp405
g5
g6
(g7
(I0
tS'b'
tRp406
(I1
(tg10
I00
S'\xceP\x19\xadc\xf1@@'
tbsg11
F1
ssI197
(dp407
g5
g6
(g7
(I0
tS'b'
tRp408
(I1
(tg10
I00
S'R\xd0\xf7\x93H\xf52@'
tbsg11
F1
ssI198
(dp409
g5
g6
(g7
(I0
tS'b'
tRp410
(I1
(tg10
I00
S'\xe0X\x0c\x84\xcd70@'
tbsg11
F1
ssI199
(dp411
g5
g6
(g7
(I0
tS'b'
tRp412
(I1
(tg10
I00
S'Xp\x92[\xde$8@'
tbsg11
F1
ssI200
(dp413
g5
g6
(g7
(I0
tS'b'
tRp414
(I1
(tg10
I00
S"]\xfch'\xab\xef5@"
tbss(dp415
S'status'
p416
(dp417
S'iterations_done'
p418
I200
sS'resumed_from'
p419
NsS'epoch_interrupt_received'
p420
I00
sS'received_first_batch'
p421
I01
sS'_epoch_ends'
p422
(lp423
I11
aI22
aI33
aI44
aI55
aI66
aI77
aI88
aI99
aI110
aI121
aI132
aI143
aI154
aI165
aI176
aI187
aI198
asS'epochs_done'
p424
I18
sS'epoch_started'
p425
I01
sS'batch_interrupt_received'
p426
I00
sS'training_started'
p427
I01
ssS'uuid'
p428
ccopy_reg
_reconstructor
p429
(cuuid
UUID
p430
c__builtin__
object
p431
NtRp432
(dp433
S'int'
p434
L317026615748695535623625184641635535493L
sbsb.